ARM GAS  C:\Users\hozhen\AppData\Local\Temp\ccw9XyJi.s 			page 1


   1              		.syntax unified
   2              		.cpu cortex-m3
   3              		.fpu softvfp
   4              		.eabi_attribute 20, 1
   5              		.eabi_attribute 21, 1
   6              		.eabi_attribute 23, 3
   7              		.eabi_attribute 24, 1
   8              		.eabi_attribute 25, 1
   9              		.eabi_attribute 26, 1
  10              		.eabi_attribute 30, 6
  11              		.eabi_attribute 34, 1
  12              		.eabi_attribute 18, 4
  13              		.thumb
  14              		.file	"main.c"
  15              		.text
  16              	.Ltext0:
  17              		.cfi_sections	.debug_frame
  18              		.section	.text.moteNotificationReceived,"ax",%progbits
  19              		.align	2
  20              		.global	moteNotificationReceived
  21              		.thumb
  22              		.thumb_func
  23              		.type	moteNotificationReceived, %function
  24              	moteNotificationReceived:
  25              	.LFB56:
  26              		.file 1 ".\\main.c"
   1:.\main.c      **** #include <project.h>
   2:.\main.c      **** #include <stdio.h>
   3:.\main.c      **** #include <stdlib.h>
   4:.\main.c      **** #include "SoilMoisture_Decagon.h"
   5:.\main.c      **** 
   6:.\main.c      **** #include "neomote.h"
   7:.\main.c      **** 
   8:.\main.c      **** //================================================== Wireless Section =============================
   9:.\main.c      **** 
  10:.\main.c      **** struct {
  11:.\main.c      ****     NeoRtcTimeStruct time;
  12:.\main.c      ****     DecagonGS3 SoilMoisture;
  13:.\main.c      ****     
  14:.\main.c      **** }typedef Wireless_Packet;
  15:.\main.c      **** 
  16:.\main.c      **** 
  17:.\main.c      **** 
  18:.\main.c      **** void rtcCallBackReceived(uint8 alarmType);
  19:.\main.c      **** 
  20:.\main.c      **** void moteNotificationReceived(NeoMoteNotification notification){
  27              		.loc 1 20 0
  28              		.cfi_startproc
  29              		@ args = 84, pretend = 16, frame = 8
  30              		@ frame_needed = 1, uses_anonymous_args = 0
  31              		@ link register save eliminated.
  32 0000 84B0     		sub	sp, sp, #16
  33              	.LCFI0:
  34              		.cfi_def_cfa_offset 16
  35 0002 80B4     		push	{r7}
  36              	.LCFI1:
  37              		.cfi_def_cfa_offset 20
ARM GAS  C:\Users\hozhen\AppData\Local\Temp\ccw9XyJi.s 			page 2


  38              		.cfi_offset 7, -20
  39 0004 83B0     		sub	sp, sp, #12
  40              	.LCFI2:
  41              		.cfi_def_cfa_offset 32
  42 0006 00AF     		add	r7, sp, #0
  43              	.LCFI3:
  44              		.cfi_def_cfa_register 7
  45 0008 07F1100C 		add	ip, r7, #16
  46 000c 8CE80F00 		stmia	ip, {r0, r1, r2, r3}
  21:.\main.c      ****         
  22:.\main.c      ****     if(notification.type == TYPE_MOTE_EVENT){
  47              		.loc 1 22 0
  48 0010 3B7C     		ldrb	r3, [r7, #16]	@ zero_extendqisi2
  49 0012 002B     		cmp	r3, #0
  50 0014 07D1     		bne	.L1
  51              	.LBB2:
  23:.\main.c      ****         uint8 type = notification.payload[0];
  52              		.loc 1 23 0
  53 0016 7B7C     		ldrb	r3, [r7, #17]
  54 0018 FB71     		strb	r3, [r7, #7]
  24:.\main.c      ****         if(type == EVENT_MOTE_OPERATIONAL){
  55              		.loc 1 24 0
  56 001a FB79     		ldrb	r3, [r7, #7]	@ zero_extendqisi2
  57 001c 012B     		cmp	r3, #1
  58 001e 02D1     		bne	.L1
  59              	.LBB3:
  25:.\main.c      ****            uint8 x=0;
  60              		.loc 1 25 0
  61 0020 4FF00003 		mov	r3, #0
  62 0024 BB71     		strb	r3, [r7, #6]
  63              	.L1:
  64              	.LBE3:
  65              	.LBE2:
  26:.\main.c      ****         }
  27:.\main.c      ****     }
  28:.\main.c      ****     else if(notification.type == TYPE_MOTE_DATA){
  29:.\main.c      ****        
  30:.\main.c      ****     }
  31:.\main.c      ****     
  32:.\main.c      **** }
  66              		.loc 1 32 0
  67 0026 07F10C07 		add	r7, r7, #12
  68 002a BD46     		mov	sp, r7
  69 002c 80BC     		pop	{r7}
  70 002e 04B0     		add	sp, sp, #16
  71 0030 7047     		bx	lr
  72              		.cfi_endproc
  73              	.LFE56:
  74              		.size	moteNotificationReceived, .-moteNotificationReceived
  75 0032 00BF     		.section	.text.main,"ax",%progbits
  76              		.align	2
  77              		.global	main
  78              		.thumb
  79              		.thumb_func
  80              		.type	main, %function
  81              	main:
  82              	.LFB57:
ARM GAS  C:\Users\hozhen\AppData\Local\Temp\ccw9XyJi.s 			page 3


  33:.\main.c      **** 
  34:.\main.c      **** 
  35:.\main.c      **** 
  36:.\main.c      **** 
  37:.\main.c      **** 
  38:.\main.c      **** 
  39:.\main.c      **** 
  40:.\main.c      **** //================================================== Main Section =================================
  41:.\main.c      **** 
  42:.\main.c      **** int main()
  43:.\main.c      **** {
  83              		.loc 1 43 0
  84              		.cfi_startproc
  85              		@ args = 0, pretend = 0, frame = 0
  86              		@ frame_needed = 1, uses_anonymous_args = 0
  87 0000 80B5     		push	{r7, lr}
  88              	.LCFI4:
  89              		.cfi_def_cfa_offset 8
  90              		.cfi_offset 7, -8
  91              		.cfi_offset 14, -4
  92 0002 00AF     		add	r7, sp, #0
  93              	.LCFI5:
  94              		.cfi_def_cfa_register 7
  44:.\main.c      **** 
  45:.\main.c      ****     /* Place your initialization/startup code here (e.g. MyInst_Start()) */
  46:.\main.c      **** 
  47:.\main.c      ****     /* CyGlobalIntEnable; */ /* Uncomment this line to enable global interrupts. */
  48:.\main.c      ****     CYGlobalIntEnable;
  95              		.loc 1 48 0
  96              	@ 48 ".\main.c" 1
  97 0004 62B6     		CPSIE   i
  98              	@ 0 "" 2
  49:.\main.c      ****     
  50:.\main.c      ****     SoilMoisture_Decagon_Start();
  99              		.loc 1 50 0
 100              		.thumb
 101 0006 FFF7FEFF 		bl	SoilMoisture_Decagon_Start
  51:.\main.c      ****     
  52:.\main.c      ****     
  53:.\main.c      ****     //=======================Real Time Clock Section=======================
  54:.\main.c      ****     NeoRTC_Start(rtcCallBackReceived); // Start and enable the RTC.
 102              		.loc 1 54 0
 103 000a 40F20000 		movw	r0, #:lower16:rtcCallBackReceived
 104 000e C0F20000 		movt	r0, #:upper16:rtcCallBackReceived
 105 0012 FFF7FEFF 		bl	NeoRTC_Start
  55:.\main.c      ****     NeoRTC_Set_Repeating_Minute_Alarm(1u);
 106              		.loc 1 55 0
 107 0016 4FF00100 		mov	r0, #1
 108 001a FFF7FEFF 		bl	NeoRTC_Set_Repeating_Minute_Alarm
  56:.\main.c      ****     NeoRTC_Enable_Second_Interrupt();
 109              		.loc 1 56 0
 110 001e FFF7FEFF 		bl	NeoRTC_Enable_Second_Interrupt
  57:.\main.c      ****         Mote_Start(moteNotificationReceived);
 111              		.loc 1 57 0
 112 0022 40F20000 		movw	r0, #:lower16:moteNotificationReceived
 113 0026 C0F20000 		movt	r0, #:upper16:moteNotificationReceived
 114 002a FFF7FEFF 		bl	Mote_Start
ARM GAS  C:\Users\hozhen\AppData\Local\Temp\ccw9XyJi.s 			page 4


 115              	.L5:
  58:.\main.c      ****     for(;;){
  59:.\main.c      ****         NeoRTC_Process_Tasks();
 116              		.loc 1 59 0 discriminator 1
 117 002e FFF7FEFF 		bl	NeoRTC_Process_Tasks
  60:.\main.c      ****         Mote_Process_Tasks();
 118              		.loc 1 60 0 discriminator 1
 119 0032 FFF7FEFF 		bl	Mote_Process_Tasks
  61:.\main.c      ****     }
 120              		.loc 1 61 0 discriminator 1
 121 0036 FAE7     		b	.L5
 122              		.cfi_endproc
 123              	.LFE57:
 124              		.size	main, .-main
 125              		.section	.text.rtcCallBackReceived,"ax",%progbits
 126              		.align	2
 127              		.global	rtcCallBackReceived
 128              		.thumb
 129              		.thumb_func
 130              		.type	rtcCallBackReceived, %function
 131              	rtcCallBackReceived:
 132              	.LFB58:
  62:.\main.c      ****     //==============================================
  63:.\main.c      ****     
  64:.\main.c      **** 
  65:.\main.c      **** }
  66:.\main.c      ****     
  67:.\main.c      **** //================================================== Real Time Clock Section ======================
  68:.\main.c      ****  
  69:.\main.c      **** void rtcCallBackReceived(uint8 alarmType){ // RTC Event Handler.
 133              		.loc 1 69 0
 134              		.cfi_startproc
 135              		@ args = 0, pretend = 0, frame = 64
 136              		@ frame_needed = 1, uses_anonymous_args = 0
 137 0000 90B5     		push	{r4, r7, lr}
 138              	.LCFI6:
 139              		.cfi_def_cfa_offset 12
 140              		.cfi_offset 4, -12
 141              		.cfi_offset 7, -8
 142              		.cfi_offset 14, -4
 143 0002 91B0     		sub	sp, sp, #68
 144              	.LCFI7:
 145              		.cfi_def_cfa_offset 80
 146 0004 00AF     		add	r7, sp, #0
 147              	.LCFI8:
 148              		.cfi_def_cfa_register 7
 149 0006 0346     		mov	r3, r0
 150 0008 FB77     		strb	r3, [r7, #31]
  70:.\main.c      ****     if(alarmType == RTC_SECOND_ALARM){
 151              		.loc 1 70 0
 152 000a FB7F     		ldrb	r3, [r7, #31]	@ zero_extendqisi2
 153 000c 002B     		cmp	r3, #0
 154 000e 1CD0     		beq	.L6
  71:.\main.c      ****         
  72:.\main.c      ****     }else if(alarmType == RTC_MINUTE_ALARM){
 155              		.loc 1 72 0
 156 0010 FB7F     		ldrb	r3, [r7, #31]	@ zero_extendqisi2
ARM GAS  C:\Users\hozhen\AppData\Local\Temp\ccw9XyJi.s 			page 5


 157 0012 012B     		cmp	r3, #1
 158 0014 19D1     		bne	.L6
 159              	.LBB4:
  73:.\main.c      ****         Wireless_Packet Packet;
  74:.\main.c      ****         Packet.time = NeoRTC_Read_Time();
 160              		.loc 1 74 0
 161 0016 07F11003 		add	r3, r7, #16
 162 001a 1846     		mov	r0, r3
 163 001c FFF7FEFF 		bl	NeoRTC_Read_Time
 164 0020 07F12403 		add	r3, r7, #36
 165 0024 07F11002 		add	r2, r7, #16
 166 0028 1068     		ldr	r0, [r2, #0]	@ unaligned
 167 002a 5168     		ldr	r1, [r2, #4]	@ unaligned
 168 002c 03C3     		stmia	r3!, {r0, r1}
  75:.\main.c      ****         
  76:.\main.c      ****         Packet.SoilMoisture = SoilMoisture_Decagon_Take_Reading();
 169              		.loc 1 76 0
 170 002e 3B46     		mov	r3, r7
 171 0030 1846     		mov	r0, r3
 172 0032 FFF7FEFF 		bl	SoilMoisture_Decagon_Take_Reading
 173 0036 07F12C04 		add	r4, r7, #44
 174 003a 3B46     		mov	r3, r7
 175 003c 0FCB     		ldmia	r3, {r0, r1, r2, r3}
 176 003e 84E80F00 		stmia	r4, {r0, r1, r2, r3}
  77:.\main.c      ****         uint8 x =0;
 177              		.loc 1 77 0
 178 0042 4FF00003 		mov	r3, #0
 179 0046 87F83F30 		strb	r3, [r7, #63]
 180              	.L6:
 181              	.LBE4:
  78:.\main.c      ****         //Mote_Send_Packet(Packet,sizeof(Wireless_Packet))
  79:.\main.c      ****     
  80:.\main.c      ****     }
  81:.\main.c      **** 
  82:.\main.c      **** }
 182              		.loc 1 82 0
 183 004a 07F14407 		add	r7, r7, #68
 184 004e BD46     		mov	sp, r7
 185 0050 90BD     		pop	{r4, r7, pc}
 186              		.cfi_endproc
 187              	.LFE58:
 188              		.size	rtcCallBackReceived, .-rtcCallBackReceived
 189 0052 00BF     		.text
 190              	.Letext0:
 191              		.file 2 "c:\\program files (x86)\\cypress\\psoc creator\\3.0\\psoc creator\\import\\gnu_cs\\arm\\4
 192              		.file 3 "./Generated_Source/PSoC5/cytypes.h"
 193              		.file 4 ".\\SoilMoisture_Decagon.h"
 194              		.file 5 "..\\..\\..\\..\\neolib/neomote.h"
 195              		.file 6 "./Generated_Source/PSoC5/core_cm3.h"