ARM GAS  C:\Users\hozhen\AppData\Local\Temp\ccp4Cpos.s 			page 1


   1              		.syntax unified
   2              		.cpu cortex-m3
   3              		.fpu softvfp
   4              		.eabi_attribute 20, 1
   5              		.eabi_attribute 21, 1
   6              		.eabi_attribute 23, 3
   7              		.eabi_attribute 24, 1
   8              		.eabi_attribute 25, 1
   9              		.eabi_attribute 26, 1
  10              		.eabi_attribute 30, 6
  11              		.eabi_attribute 34, 1
  12              		.eabi_attribute 18, 4
  13              		.thumb
  14              		.file	"UART_SoilMoisture_Decagon.c"
  15              		.text
  16              	.Ltext0:
  17              		.cfi_sections	.debug_frame
  18              		.global	UART_SoilMoisture_Decagon_initVar
  19              		.bss
  20              		.type	UART_SoilMoisture_Decagon_initVar, %object
  21              		.size	UART_SoilMoisture_Decagon_initVar, 1
  22              	UART_SoilMoisture_Decagon_initVar:
  23 0000 00       		.space	1
  24              		.section	.text.UART_SoilMoisture_Decagon_Start,"ax",%progbits
  25              		.align	2
  26              		.global	UART_SoilMoisture_Decagon_Start
  27              		.thumb
  28              		.thumb_func
  29              		.type	UART_SoilMoisture_Decagon_Start, %function
  30              	UART_SoilMoisture_Decagon_Start:
  31              	.LFB0:
  32              		.file 1 ".\\Generated_Source\\PSoC5\\UART_SoilMoisture_Decagon.c"
   1:.\Generated_Source\PSoC5/UART_SoilMoisture_Decagon.c **** /*******************************************************************************
   2:.\Generated_Source\PSoC5/UART_SoilMoisture_Decagon.c **** * File Name: UART_SoilMoisture_Decagon.c
   3:.\Generated_Source\PSoC5/UART_SoilMoisture_Decagon.c **** * Version 2.30
   4:.\Generated_Source\PSoC5/UART_SoilMoisture_Decagon.c **** *
   5:.\Generated_Source\PSoC5/UART_SoilMoisture_Decagon.c **** * Description:
   6:.\Generated_Source\PSoC5/UART_SoilMoisture_Decagon.c **** *  This file provides all API functionality of the UART component
   7:.\Generated_Source\PSoC5/UART_SoilMoisture_Decagon.c **** *
   8:.\Generated_Source\PSoC5/UART_SoilMoisture_Decagon.c **** * Note:
   9:.\Generated_Source\PSoC5/UART_SoilMoisture_Decagon.c **** *
  10:.\Generated_Source\PSoC5/UART_SoilMoisture_Decagon.c **** ********************************************************************************
  11:.\Generated_Source\PSoC5/UART_SoilMoisture_Decagon.c **** * Copyright 2008-2012, Cypress Semiconductor Corporation.  All rights reserved.
  12:.\Generated_Source\PSoC5/UART_SoilMoisture_Decagon.c **** * You may use this file only in accordance with the license, terms, conditions,
  13:.\Generated_Source\PSoC5/UART_SoilMoisture_Decagon.c **** * disclaimers, and limitations in the end user license agreement accompanying
  14:.\Generated_Source\PSoC5/UART_SoilMoisture_Decagon.c **** * the software package with which this file was provided.
  15:.\Generated_Source\PSoC5/UART_SoilMoisture_Decagon.c **** *******************************************************************************/
  16:.\Generated_Source\PSoC5/UART_SoilMoisture_Decagon.c **** 
  17:.\Generated_Source\PSoC5/UART_SoilMoisture_Decagon.c **** #include "UART_SoilMoisture_Decagon.h"
  18:.\Generated_Source\PSoC5/UART_SoilMoisture_Decagon.c **** #include "CyLib.h"
  19:.\Generated_Source\PSoC5/UART_SoilMoisture_Decagon.c **** #if(UART_SoilMoisture_Decagon_INTERNAL_CLOCK_USED)
  20:.\Generated_Source\PSoC5/UART_SoilMoisture_Decagon.c ****     #include "UART_SoilMoisture_Decagon_IntClock.h"
  21:.\Generated_Source\PSoC5/UART_SoilMoisture_Decagon.c **** #endif /* End UART_SoilMoisture_Decagon_INTERNAL_CLOCK_USED */
  22:.\Generated_Source\PSoC5/UART_SoilMoisture_Decagon.c **** 
  23:.\Generated_Source\PSoC5/UART_SoilMoisture_Decagon.c **** 
  24:.\Generated_Source\PSoC5/UART_SoilMoisture_Decagon.c **** /***************************************
  25:.\Generated_Source\PSoC5/UART_SoilMoisture_Decagon.c **** * Global data allocation
ARM GAS  C:\Users\hozhen\AppData\Local\Temp\ccp4Cpos.s 			page 2


  26:.\Generated_Source\PSoC5/UART_SoilMoisture_Decagon.c **** ***************************************/
  27:.\Generated_Source\PSoC5/UART_SoilMoisture_Decagon.c **** 
  28:.\Generated_Source\PSoC5/UART_SoilMoisture_Decagon.c **** uint8 UART_SoilMoisture_Decagon_initVar = 0u;
  29:.\Generated_Source\PSoC5/UART_SoilMoisture_Decagon.c **** #if( UART_SoilMoisture_Decagon_TX_ENABLED && (UART_SoilMoisture_Decagon_TXBUFFERSIZE > UART_SoilMoi
  30:.\Generated_Source\PSoC5/UART_SoilMoisture_Decagon.c ****     volatile uint8 UART_SoilMoisture_Decagon_txBuffer[UART_SoilMoisture_Decagon_TXBUFFERSIZE];
  31:.\Generated_Source\PSoC5/UART_SoilMoisture_Decagon.c ****     volatile uint8 UART_SoilMoisture_Decagon_txBufferRead = 0u;
  32:.\Generated_Source\PSoC5/UART_SoilMoisture_Decagon.c ****     uint8 UART_SoilMoisture_Decagon_txBufferWrite = 0u;
  33:.\Generated_Source\PSoC5/UART_SoilMoisture_Decagon.c **** #endif /* End UART_SoilMoisture_Decagon_TX_ENABLED */
  34:.\Generated_Source\PSoC5/UART_SoilMoisture_Decagon.c **** #if( ( UART_SoilMoisture_Decagon_RX_ENABLED || UART_SoilMoisture_Decagon_HD_ENABLED ) && \
  35:.\Generated_Source\PSoC5/UART_SoilMoisture_Decagon.c ****      (UART_SoilMoisture_Decagon_RXBUFFERSIZE > UART_SoilMoisture_Decagon_FIFO_LENGTH) )
  36:.\Generated_Source\PSoC5/UART_SoilMoisture_Decagon.c ****     volatile uint8 UART_SoilMoisture_Decagon_rxBuffer[UART_SoilMoisture_Decagon_RXBUFFERSIZE];
  37:.\Generated_Source\PSoC5/UART_SoilMoisture_Decagon.c ****     volatile uint8 UART_SoilMoisture_Decagon_rxBufferRead = 0u;
  38:.\Generated_Source\PSoC5/UART_SoilMoisture_Decagon.c ****     volatile uint8 UART_SoilMoisture_Decagon_rxBufferWrite = 0u;
  39:.\Generated_Source\PSoC5/UART_SoilMoisture_Decagon.c ****     volatile uint8 UART_SoilMoisture_Decagon_rxBufferLoopDetect = 0u;
  40:.\Generated_Source\PSoC5/UART_SoilMoisture_Decagon.c ****     volatile uint8 UART_SoilMoisture_Decagon_rxBufferOverflow = 0u;
  41:.\Generated_Source\PSoC5/UART_SoilMoisture_Decagon.c ****     #if (UART_SoilMoisture_Decagon_RXHW_ADDRESS_ENABLED)
  42:.\Generated_Source\PSoC5/UART_SoilMoisture_Decagon.c ****         volatile uint8 UART_SoilMoisture_Decagon_rxAddressMode = UART_SoilMoisture_Decagon_RXADDRES
  43:.\Generated_Source\PSoC5/UART_SoilMoisture_Decagon.c ****         volatile uint8 UART_SoilMoisture_Decagon_rxAddressDetected = 0u;
  44:.\Generated_Source\PSoC5/UART_SoilMoisture_Decagon.c ****     #endif /* End EnableHWAddress */
  45:.\Generated_Source\PSoC5/UART_SoilMoisture_Decagon.c **** #endif /* End UART_SoilMoisture_Decagon_RX_ENABLED */
  46:.\Generated_Source\PSoC5/UART_SoilMoisture_Decagon.c **** 
  47:.\Generated_Source\PSoC5/UART_SoilMoisture_Decagon.c **** 
  48:.\Generated_Source\PSoC5/UART_SoilMoisture_Decagon.c **** /*******************************************************************************
  49:.\Generated_Source\PSoC5/UART_SoilMoisture_Decagon.c **** * Function Name: UART_SoilMoisture_Decagon_Start
  50:.\Generated_Source\PSoC5/UART_SoilMoisture_Decagon.c **** ********************************************************************************
  51:.\Generated_Source\PSoC5/UART_SoilMoisture_Decagon.c **** *
  52:.\Generated_Source\PSoC5/UART_SoilMoisture_Decagon.c **** * Summary:
  53:.\Generated_Source\PSoC5/UART_SoilMoisture_Decagon.c **** *  Initialize and Enable the UART component.
  54:.\Generated_Source\PSoC5/UART_SoilMoisture_Decagon.c **** *  Enable the clock input to enable operation.
  55:.\Generated_Source\PSoC5/UART_SoilMoisture_Decagon.c **** *
  56:.\Generated_Source\PSoC5/UART_SoilMoisture_Decagon.c **** * Parameters:
  57:.\Generated_Source\PSoC5/UART_SoilMoisture_Decagon.c **** *  None.
  58:.\Generated_Source\PSoC5/UART_SoilMoisture_Decagon.c **** *
  59:.\Generated_Source\PSoC5/UART_SoilMoisture_Decagon.c **** * Return:
  60:.\Generated_Source\PSoC5/UART_SoilMoisture_Decagon.c **** *  None.
  61:.\Generated_Source\PSoC5/UART_SoilMoisture_Decagon.c **** *
  62:.\Generated_Source\PSoC5/UART_SoilMoisture_Decagon.c **** * Global variables:
  63:.\Generated_Source\PSoC5/UART_SoilMoisture_Decagon.c **** *  The UART_SoilMoisture_Decagon_intiVar variable is used to indicate initial
  64:.\Generated_Source\PSoC5/UART_SoilMoisture_Decagon.c **** *  configuration of this component. The variable is initialized to zero (0u)
  65:.\Generated_Source\PSoC5/UART_SoilMoisture_Decagon.c **** *  and set to one (1u) the first time UART_Start() is called. This allows for
  66:.\Generated_Source\PSoC5/UART_SoilMoisture_Decagon.c **** *  component initialization without re-initialization in all subsequent calls
  67:.\Generated_Source\PSoC5/UART_SoilMoisture_Decagon.c **** *  to the UART_SoilMoisture_Decagon_Start() routine.
  68:.\Generated_Source\PSoC5/UART_SoilMoisture_Decagon.c **** *
  69:.\Generated_Source\PSoC5/UART_SoilMoisture_Decagon.c **** * Reentrant:
  70:.\Generated_Source\PSoC5/UART_SoilMoisture_Decagon.c **** *  No.
  71:.\Generated_Source\PSoC5/UART_SoilMoisture_Decagon.c **** *
  72:.\Generated_Source\PSoC5/UART_SoilMoisture_Decagon.c **** *******************************************************************************/
  73:.\Generated_Source\PSoC5/UART_SoilMoisture_Decagon.c **** void UART_SoilMoisture_Decagon_Start(void) 
  74:.\Generated_Source\PSoC5/UART_SoilMoisture_Decagon.c **** {
  33              		.loc 1 74 0
  34              		.cfi_startproc
  35              		@ args = 0, pretend = 0, frame = 0
  36              		@ frame_needed = 1, uses_anonymous_args = 0
  37 0000 80B5     		push	{r7, lr}
  38              	.LCFI0:
  39              		.cfi_def_cfa_offset 8
  40              		.cfi_offset 7, -8
ARM GAS  C:\Users\hozhen\AppData\Local\Temp\ccp4Cpos.s 			page 3


  41              		.cfi_offset 14, -4
  42 0002 00AF     		add	r7, sp, #0
  43              	.LCFI1:
  44              		.cfi_def_cfa_register 7
  75:.\Generated_Source\PSoC5/UART_SoilMoisture_Decagon.c ****     /* If not Initialized then initialize all required hardware and software */
  76:.\Generated_Source\PSoC5/UART_SoilMoisture_Decagon.c ****     if(UART_SoilMoisture_Decagon_initVar == 0u)
  45              		.loc 1 76 0
  46 0004 40F20003 		movw	r3, #:lower16:UART_SoilMoisture_Decagon_initVar
  47 0008 C0F20003 		movt	r3, #:upper16:UART_SoilMoisture_Decagon_initVar
  48 000c 1B78     		ldrb	r3, [r3, #0]	@ zero_extendqisi2
  49 000e 002B     		cmp	r3, #0
  50 0010 08D1     		bne	.L2
  77:.\Generated_Source\PSoC5/UART_SoilMoisture_Decagon.c ****     {
  78:.\Generated_Source\PSoC5/UART_SoilMoisture_Decagon.c ****         UART_SoilMoisture_Decagon_Init();
  51              		.loc 1 78 0
  52 0012 FFF7FEFF 		bl	UART_SoilMoisture_Decagon_Init
  79:.\Generated_Source\PSoC5/UART_SoilMoisture_Decagon.c ****         UART_SoilMoisture_Decagon_initVar = 1u;
  53              		.loc 1 79 0
  54 0016 40F20003 		movw	r3, #:lower16:UART_SoilMoisture_Decagon_initVar
  55 001a C0F20003 		movt	r3, #:upper16:UART_SoilMoisture_Decagon_initVar
  56 001e 4FF00102 		mov	r2, #1
  57 0022 1A70     		strb	r2, [r3, #0]
  58              	.L2:
  80:.\Generated_Source\PSoC5/UART_SoilMoisture_Decagon.c ****     }
  81:.\Generated_Source\PSoC5/UART_SoilMoisture_Decagon.c ****     UART_SoilMoisture_Decagon_Enable();
  59              		.loc 1 81 0
  60 0024 FFF7FEFF 		bl	UART_SoilMoisture_Decagon_Enable
  82:.\Generated_Source\PSoC5/UART_SoilMoisture_Decagon.c **** }
  61              		.loc 1 82 0
  62 0028 80BD     		pop	{r7, pc}
  63              		.cfi_endproc
  64              	.LFE0:
  65              		.size	UART_SoilMoisture_Decagon_Start, .-UART_SoilMoisture_Decagon_Start
  66 002a 00BF     		.section	.text.UART_SoilMoisture_Decagon_Init,"ax",%progbits
  67              		.align	2
  68              		.global	UART_SoilMoisture_Decagon_Init
  69              		.thumb
  70              		.thumb_func
  71              		.type	UART_SoilMoisture_Decagon_Init, %function
  72              	UART_SoilMoisture_Decagon_Init:
  73              	.LFB1:
  83:.\Generated_Source\PSoC5/UART_SoilMoisture_Decagon.c **** 
  84:.\Generated_Source\PSoC5/UART_SoilMoisture_Decagon.c **** 
  85:.\Generated_Source\PSoC5/UART_SoilMoisture_Decagon.c **** /*******************************************************************************
  86:.\Generated_Source\PSoC5/UART_SoilMoisture_Decagon.c **** * Function Name: UART_SoilMoisture_Decagon_Init
  87:.\Generated_Source\PSoC5/UART_SoilMoisture_Decagon.c **** ********************************************************************************
  88:.\Generated_Source\PSoC5/UART_SoilMoisture_Decagon.c **** *
  89:.\Generated_Source\PSoC5/UART_SoilMoisture_Decagon.c **** * Summary:
  90:.\Generated_Source\PSoC5/UART_SoilMoisture_Decagon.c **** *  Initialize component's parameters to the parameters set by user in the
  91:.\Generated_Source\PSoC5/UART_SoilMoisture_Decagon.c **** *  customizer of the component placed onto schematic. Usually called in
  92:.\Generated_Source\PSoC5/UART_SoilMoisture_Decagon.c **** *  UART_SoilMoisture_Decagon_Start().
  93:.\Generated_Source\PSoC5/UART_SoilMoisture_Decagon.c **** *
  94:.\Generated_Source\PSoC5/UART_SoilMoisture_Decagon.c **** * Parameters:
  95:.\Generated_Source\PSoC5/UART_SoilMoisture_Decagon.c **** *  None.
  96:.\Generated_Source\PSoC5/UART_SoilMoisture_Decagon.c **** *
  97:.\Generated_Source\PSoC5/UART_SoilMoisture_Decagon.c **** * Return:
  98:.\Generated_Source\PSoC5/UART_SoilMoisture_Decagon.c **** *  None.
ARM GAS  C:\Users\hozhen\AppData\Local\Temp\ccp4Cpos.s 			page 4


  99:.\Generated_Source\PSoC5/UART_SoilMoisture_Decagon.c **** *
 100:.\Generated_Source\PSoC5/UART_SoilMoisture_Decagon.c **** *******************************************************************************/
 101:.\Generated_Source\PSoC5/UART_SoilMoisture_Decagon.c **** void UART_SoilMoisture_Decagon_Init(void) 
 102:.\Generated_Source\PSoC5/UART_SoilMoisture_Decagon.c **** {
  74              		.loc 1 102 0
  75              		.cfi_startproc
  76              		@ args = 0, pretend = 0, frame = 0
  77              		@ frame_needed = 1, uses_anonymous_args = 0
  78              		@ link register save eliminated.
  79 0000 80B4     		push	{r7}
  80              	.LCFI2:
  81              		.cfi_def_cfa_offset 4
  82              		.cfi_offset 7, -4
  83 0002 00AF     		add	r7, sp, #0
  84              	.LCFI3:
  85              		.cfi_def_cfa_register 7
 103:.\Generated_Source\PSoC5/UART_SoilMoisture_Decagon.c ****     #if(UART_SoilMoisture_Decagon_RX_ENABLED || UART_SoilMoisture_Decagon_HD_ENABLED)
 104:.\Generated_Source\PSoC5/UART_SoilMoisture_Decagon.c **** 
 105:.\Generated_Source\PSoC5/UART_SoilMoisture_Decagon.c ****         #if(UART_SoilMoisture_Decagon_RX_INTERRUPT_ENABLED && (UART_SoilMoisture_Decagon_RXBUFFERSI
 106:.\Generated_Source\PSoC5/UART_SoilMoisture_Decagon.c ****             /* Set the RX Interrupt. */
 107:.\Generated_Source\PSoC5/UART_SoilMoisture_Decagon.c ****             (void)CyIntSetVector(UART_SoilMoisture_Decagon_RX_VECT_NUM, &UART_SoilMoisture_Decagon_
 108:.\Generated_Source\PSoC5/UART_SoilMoisture_Decagon.c ****             CyIntSetPriority(UART_SoilMoisture_Decagon_RX_VECT_NUM, UART_SoilMoisture_Decagon_RX_PR
 109:.\Generated_Source\PSoC5/UART_SoilMoisture_Decagon.c ****         #endif /* End UART_SoilMoisture_Decagon_RX_INTERRUPT_ENABLED */
 110:.\Generated_Source\PSoC5/UART_SoilMoisture_Decagon.c **** 
 111:.\Generated_Source\PSoC5/UART_SoilMoisture_Decagon.c ****         #if (UART_SoilMoisture_Decagon_RXHW_ADDRESS_ENABLED)
 112:.\Generated_Source\PSoC5/UART_SoilMoisture_Decagon.c ****             UART_SoilMoisture_Decagon_SetRxAddressMode(UART_SoilMoisture_Decagon_RXAddressMode);
 113:.\Generated_Source\PSoC5/UART_SoilMoisture_Decagon.c ****             UART_SoilMoisture_Decagon_SetRxAddress1(UART_SoilMoisture_Decagon_RXHWADDRESS1);
 114:.\Generated_Source\PSoC5/UART_SoilMoisture_Decagon.c ****             UART_SoilMoisture_Decagon_SetRxAddress2(UART_SoilMoisture_Decagon_RXHWADDRESS2);
 115:.\Generated_Source\PSoC5/UART_SoilMoisture_Decagon.c ****         #endif /* End UART_SoilMoisture_Decagon_RXHW_ADDRESS_ENABLED */
 116:.\Generated_Source\PSoC5/UART_SoilMoisture_Decagon.c **** 
 117:.\Generated_Source\PSoC5/UART_SoilMoisture_Decagon.c ****         /* Init Count7 period */
 118:.\Generated_Source\PSoC5/UART_SoilMoisture_Decagon.c ****         UART_SoilMoisture_Decagon_RXBITCTR_PERIOD_REG = UART_SoilMoisture_Decagon_RXBITCTR_INIT;
  86              		.loc 1 118 0
  87 0004 46F28143 		movw	r3, #25729
  88 0008 C4F20003 		movt	r3, 16384
  89 000c 4FF07202 		mov	r2, #114
  90 0010 1A70     		strb	r2, [r3, #0]
 119:.\Generated_Source\PSoC5/UART_SoilMoisture_Decagon.c ****         /* Configure the Initial RX interrupt mask */
 120:.\Generated_Source\PSoC5/UART_SoilMoisture_Decagon.c ****         UART_SoilMoisture_Decagon_RXSTATUS_MASK_REG  = UART_SoilMoisture_Decagon_INIT_RX_INTERRUPTS
  91              		.loc 1 120 0
  92 0012 46F28243 		movw	r3, #25730
  93 0016 C4F20003 		movt	r3, 16384
  94 001a 4FF02002 		mov	r2, #32
  95 001e 1A70     		strb	r2, [r3, #0]
 121:.\Generated_Source\PSoC5/UART_SoilMoisture_Decagon.c ****     #endif /* End UART_SoilMoisture_Decagon_RX_ENABLED || UART_SoilMoisture_Decagon_HD_ENABLED*/
 122:.\Generated_Source\PSoC5/UART_SoilMoisture_Decagon.c **** 
 123:.\Generated_Source\PSoC5/UART_SoilMoisture_Decagon.c ****     #if(UART_SoilMoisture_Decagon_TX_ENABLED)
 124:.\Generated_Source\PSoC5/UART_SoilMoisture_Decagon.c ****         #if(UART_SoilMoisture_Decagon_TX_INTERRUPT_ENABLED && (UART_SoilMoisture_Decagon_TXBUFFERSI
 125:.\Generated_Source\PSoC5/UART_SoilMoisture_Decagon.c ****             /* Set the TX Interrupt. */
 126:.\Generated_Source\PSoC5/UART_SoilMoisture_Decagon.c ****             (void)CyIntSetVector(UART_SoilMoisture_Decagon_TX_VECT_NUM, &UART_SoilMoisture_Decagon_
 127:.\Generated_Source\PSoC5/UART_SoilMoisture_Decagon.c ****             CyIntSetPriority(UART_SoilMoisture_Decagon_TX_VECT_NUM, UART_SoilMoisture_Decagon_TX_PR
 128:.\Generated_Source\PSoC5/UART_SoilMoisture_Decagon.c ****         #endif /* End UART_SoilMoisture_Decagon_TX_INTERRUPT_ENABLED */
 129:.\Generated_Source\PSoC5/UART_SoilMoisture_Decagon.c **** 
 130:.\Generated_Source\PSoC5/UART_SoilMoisture_Decagon.c ****         /* Write Counter Value for TX Bit Clk Generator*/
 131:.\Generated_Source\PSoC5/UART_SoilMoisture_Decagon.c ****         #if(UART_SoilMoisture_Decagon_TXCLKGEN_DP)
 132:.\Generated_Source\PSoC5/UART_SoilMoisture_Decagon.c ****             UART_SoilMoisture_Decagon_TXBITCLKGEN_CTR_REG = UART_SoilMoisture_Decagon_BIT_CENTER;
 133:.\Generated_Source\PSoC5/UART_SoilMoisture_Decagon.c ****             UART_SoilMoisture_Decagon_TXBITCLKTX_COMPLETE_REG = (UART_SoilMoisture_Decagon_NUMBER_O
ARM GAS  C:\Users\hozhen\AppData\Local\Temp\ccp4Cpos.s 			page 5


 134:.\Generated_Source\PSoC5/UART_SoilMoisture_Decagon.c ****                         UART_SoilMoisture_Decagon_NUMBER_OF_START_BIT) * UART_SoilMoisture_Decagon_
 135:.\Generated_Source\PSoC5/UART_SoilMoisture_Decagon.c ****         #else
 136:.\Generated_Source\PSoC5/UART_SoilMoisture_Decagon.c ****             UART_SoilMoisture_Decagon_TXBITCTR_PERIOD_REG = ((UART_SoilMoisture_Decagon_NUMBER_OF_D
 137:.\Generated_Source\PSoC5/UART_SoilMoisture_Decagon.c ****                         UART_SoilMoisture_Decagon_NUMBER_OF_START_BIT) * UART_SoilMoisture_Decagon_
 138:.\Generated_Source\PSoC5/UART_SoilMoisture_Decagon.c ****         #endif /* End UART_SoilMoisture_Decagon_TXCLKGEN_DP */
 139:.\Generated_Source\PSoC5/UART_SoilMoisture_Decagon.c **** 
 140:.\Generated_Source\PSoC5/UART_SoilMoisture_Decagon.c ****         /* Configure the Initial TX interrupt mask */
 141:.\Generated_Source\PSoC5/UART_SoilMoisture_Decagon.c ****         #if(UART_SoilMoisture_Decagon_TX_INTERRUPT_ENABLED && (UART_SoilMoisture_Decagon_TXBUFFERSI
 142:.\Generated_Source\PSoC5/UART_SoilMoisture_Decagon.c ****             UART_SoilMoisture_Decagon_TXSTATUS_MASK_REG = UART_SoilMoisture_Decagon_TX_STS_FIFO_EMP
 143:.\Generated_Source\PSoC5/UART_SoilMoisture_Decagon.c ****         #else
 144:.\Generated_Source\PSoC5/UART_SoilMoisture_Decagon.c ****             UART_SoilMoisture_Decagon_TXSTATUS_MASK_REG = UART_SoilMoisture_Decagon_INIT_TX_INTERRU
 145:.\Generated_Source\PSoC5/UART_SoilMoisture_Decagon.c ****         #endif /*End UART_SoilMoisture_Decagon_TX_INTERRUPT_ENABLED*/
 146:.\Generated_Source\PSoC5/UART_SoilMoisture_Decagon.c **** 
 147:.\Generated_Source\PSoC5/UART_SoilMoisture_Decagon.c ****     #endif /* End UART_SoilMoisture_Decagon_TX_ENABLED */
 148:.\Generated_Source\PSoC5/UART_SoilMoisture_Decagon.c **** 
 149:.\Generated_Source\PSoC5/UART_SoilMoisture_Decagon.c ****     #if(UART_SoilMoisture_Decagon_PARITY_TYPE_SW)  /* Write Parity to Control Register */
 150:.\Generated_Source\PSoC5/UART_SoilMoisture_Decagon.c ****         UART_SoilMoisture_Decagon_WriteControlRegister( \
 151:.\Generated_Source\PSoC5/UART_SoilMoisture_Decagon.c ****             (UART_SoilMoisture_Decagon_ReadControlRegister() & (uint8)~UART_SoilMoisture_Decagon_CT
 152:.\Generated_Source\PSoC5/UART_SoilMoisture_Decagon.c ****             (uint8)(UART_SoilMoisture_Decagon_PARITY_TYPE << UART_SoilMoisture_Decagon_CTRL_PARITY_
 153:.\Generated_Source\PSoC5/UART_SoilMoisture_Decagon.c ****     #endif /* End UART_SoilMoisture_Decagon_PARITY_TYPE_SW */
 154:.\Generated_Source\PSoC5/UART_SoilMoisture_Decagon.c **** }
  96              		.loc 1 154 0
  97 0020 BD46     		mov	sp, r7
  98 0022 80BC     		pop	{r7}
  99 0024 7047     		bx	lr
 100              		.cfi_endproc
 101              	.LFE1:
 102              		.size	UART_SoilMoisture_Decagon_Init, .-UART_SoilMoisture_Decagon_Init
 103 0026 00BF     		.section	.text.UART_SoilMoisture_Decagon_Enable,"ax",%progbits
 104              		.align	2
 105              		.global	UART_SoilMoisture_Decagon_Enable
 106              		.thumb
 107              		.thumb_func
 108              		.type	UART_SoilMoisture_Decagon_Enable, %function
 109              	UART_SoilMoisture_Decagon_Enable:
 110              	.LFB2:
 155:.\Generated_Source\PSoC5/UART_SoilMoisture_Decagon.c **** 
 156:.\Generated_Source\PSoC5/UART_SoilMoisture_Decagon.c **** 
 157:.\Generated_Source\PSoC5/UART_SoilMoisture_Decagon.c **** /*******************************************************************************
 158:.\Generated_Source\PSoC5/UART_SoilMoisture_Decagon.c **** * Function Name: UART_SoilMoisture_Decagon_Enable
 159:.\Generated_Source\PSoC5/UART_SoilMoisture_Decagon.c **** ********************************************************************************
 160:.\Generated_Source\PSoC5/UART_SoilMoisture_Decagon.c **** *
 161:.\Generated_Source\PSoC5/UART_SoilMoisture_Decagon.c **** * Summary:
 162:.\Generated_Source\PSoC5/UART_SoilMoisture_Decagon.c **** *  Enables the UART block operation
 163:.\Generated_Source\PSoC5/UART_SoilMoisture_Decagon.c **** *
 164:.\Generated_Source\PSoC5/UART_SoilMoisture_Decagon.c **** * Parameters:
 165:.\Generated_Source\PSoC5/UART_SoilMoisture_Decagon.c **** *  None.
 166:.\Generated_Source\PSoC5/UART_SoilMoisture_Decagon.c **** *
 167:.\Generated_Source\PSoC5/UART_SoilMoisture_Decagon.c **** * Return:
 168:.\Generated_Source\PSoC5/UART_SoilMoisture_Decagon.c **** *  None.
 169:.\Generated_Source\PSoC5/UART_SoilMoisture_Decagon.c **** *
 170:.\Generated_Source\PSoC5/UART_SoilMoisture_Decagon.c **** * Global Variables:
 171:.\Generated_Source\PSoC5/UART_SoilMoisture_Decagon.c **** *  UART_SoilMoisture_Decagon_rxAddressDetected - set to initial state (0).
 172:.\Generated_Source\PSoC5/UART_SoilMoisture_Decagon.c **** *
 173:.\Generated_Source\PSoC5/UART_SoilMoisture_Decagon.c **** *******************************************************************************/
 174:.\Generated_Source\PSoC5/UART_SoilMoisture_Decagon.c **** void UART_SoilMoisture_Decagon_Enable(void) 
 175:.\Generated_Source\PSoC5/UART_SoilMoisture_Decagon.c **** {
ARM GAS  C:\Users\hozhen\AppData\Local\Temp\ccp4Cpos.s 			page 6


 111              		.loc 1 175 0
 112              		.cfi_startproc
 113              		@ args = 0, pretend = 0, frame = 8
 114              		@ frame_needed = 1, uses_anonymous_args = 0
 115 0000 80B5     		push	{r7, lr}
 116              	.LCFI4:
 117              		.cfi_def_cfa_offset 8
 118              		.cfi_offset 7, -8
 119              		.cfi_offset 14, -4
 120 0002 82B0     		sub	sp, sp, #8
 121              	.LCFI5:
 122              		.cfi_def_cfa_offset 16
 123 0004 00AF     		add	r7, sp, #0
 124              	.LCFI6:
 125              		.cfi_def_cfa_register 7
 176:.\Generated_Source\PSoC5/UART_SoilMoisture_Decagon.c ****     uint8 enableInterrupts;
 177:.\Generated_Source\PSoC5/UART_SoilMoisture_Decagon.c ****     enableInterrupts = CyEnterCriticalSection();
 126              		.loc 1 177 0
 127 0006 FFF7FEFF 		bl	CyEnterCriticalSection
 128 000a 0346     		mov	r3, r0
 129 000c FB71     		strb	r3, [r7, #7]
 178:.\Generated_Source\PSoC5/UART_SoilMoisture_Decagon.c **** 
 179:.\Generated_Source\PSoC5/UART_SoilMoisture_Decagon.c ****     #if(UART_SoilMoisture_Decagon_RX_ENABLED || UART_SoilMoisture_Decagon_HD_ENABLED)
 180:.\Generated_Source\PSoC5/UART_SoilMoisture_Decagon.c ****         /*RX Counter (Count7) Enable */
 181:.\Generated_Source\PSoC5/UART_SoilMoisture_Decagon.c ****         UART_SoilMoisture_Decagon_RXBITCTR_CONTROL_REG |= UART_SoilMoisture_Decagon_CNTR_ENABLE;
 130              		.loc 1 181 0
 131 000e 46F29143 		movw	r3, #25745
 132 0012 C4F20003 		movt	r3, 16384
 133 0016 46F29142 		movw	r2, #25745
 134 001a C4F20002 		movt	r2, 16384
 135 001e 1278     		ldrb	r2, [r2, #0]
 136 0020 D2B2     		uxtb	r2, r2
 137 0022 42F02002 		orr	r2, r2, #32
 138 0026 D2B2     		uxtb	r2, r2
 139 0028 1A70     		strb	r2, [r3, #0]
 182:.\Generated_Source\PSoC5/UART_SoilMoisture_Decagon.c ****         /* Enable the RX Interrupt. */
 183:.\Generated_Source\PSoC5/UART_SoilMoisture_Decagon.c ****         UART_SoilMoisture_Decagon_RXSTATUS_ACTL_REG  |= UART_SoilMoisture_Decagon_INT_ENABLE;
 140              		.loc 1 183 0
 141 002a 46F29243 		movw	r3, #25746
 142 002e C4F20003 		movt	r3, 16384
 143 0032 46F29242 		movw	r2, #25746
 144 0036 C4F20002 		movt	r2, 16384
 145 003a 1278     		ldrb	r2, [r2, #0]
 146 003c D2B2     		uxtb	r2, r2
 147 003e 42F01002 		orr	r2, r2, #16
 148 0042 D2B2     		uxtb	r2, r2
 149 0044 1A70     		strb	r2, [r3, #0]
 184:.\Generated_Source\PSoC5/UART_SoilMoisture_Decagon.c ****         #if(UART_SoilMoisture_Decagon_RX_INTERRUPT_ENABLED && (UART_SoilMoisture_Decagon_RXBUFFERSI
 185:.\Generated_Source\PSoC5/UART_SoilMoisture_Decagon.c ****             CyIntEnable(UART_SoilMoisture_Decagon_RX_VECT_NUM);
 186:.\Generated_Source\PSoC5/UART_SoilMoisture_Decagon.c ****             #if (UART_SoilMoisture_Decagon_RXHW_ADDRESS_ENABLED)
 187:.\Generated_Source\PSoC5/UART_SoilMoisture_Decagon.c ****                 UART_SoilMoisture_Decagon_rxAddressDetected = 0u;
 188:.\Generated_Source\PSoC5/UART_SoilMoisture_Decagon.c ****             #endif /* End UART_SoilMoisture_Decagon_RXHW_ADDRESS_ENABLED */
 189:.\Generated_Source\PSoC5/UART_SoilMoisture_Decagon.c ****         #endif /* End UART_SoilMoisture_Decagon_RX_INTERRUPT_ENABLED */
 190:.\Generated_Source\PSoC5/UART_SoilMoisture_Decagon.c ****     #endif /* End UART_SoilMoisture_Decagon_RX_ENABLED || UART_SoilMoisture_Decagon_HD_ENABLED*/
 191:.\Generated_Source\PSoC5/UART_SoilMoisture_Decagon.c **** 
 192:.\Generated_Source\PSoC5/UART_SoilMoisture_Decagon.c ****     #if(UART_SoilMoisture_Decagon_TX_ENABLED)
 193:.\Generated_Source\PSoC5/UART_SoilMoisture_Decagon.c ****         /*TX Counter (DP/Count7) Enable */
ARM GAS  C:\Users\hozhen\AppData\Local\Temp\ccp4Cpos.s 			page 7


 194:.\Generated_Source\PSoC5/UART_SoilMoisture_Decagon.c ****         #if(!UART_SoilMoisture_Decagon_TXCLKGEN_DP)
 195:.\Generated_Source\PSoC5/UART_SoilMoisture_Decagon.c ****             UART_SoilMoisture_Decagon_TXBITCTR_CONTROL_REG |= UART_SoilMoisture_Decagon_CNTR_ENABLE
 196:.\Generated_Source\PSoC5/UART_SoilMoisture_Decagon.c ****         #endif /* End UART_SoilMoisture_Decagon_TXCLKGEN_DP */
 197:.\Generated_Source\PSoC5/UART_SoilMoisture_Decagon.c ****         /* Enable the TX Interrupt. */
 198:.\Generated_Source\PSoC5/UART_SoilMoisture_Decagon.c ****         UART_SoilMoisture_Decagon_TXSTATUS_ACTL_REG |= UART_SoilMoisture_Decagon_INT_ENABLE;
 199:.\Generated_Source\PSoC5/UART_SoilMoisture_Decagon.c ****         #if(UART_SoilMoisture_Decagon_TX_INTERRUPT_ENABLED && (UART_SoilMoisture_Decagon_TXBUFFERSI
 200:.\Generated_Source\PSoC5/UART_SoilMoisture_Decagon.c ****             CyIntEnable(UART_SoilMoisture_Decagon_TX_VECT_NUM);
 201:.\Generated_Source\PSoC5/UART_SoilMoisture_Decagon.c ****         #endif /* End UART_SoilMoisture_Decagon_TX_INTERRUPT_ENABLED*/
 202:.\Generated_Source\PSoC5/UART_SoilMoisture_Decagon.c ****      #endif /* End UART_SoilMoisture_Decagon_TX_ENABLED */
 203:.\Generated_Source\PSoC5/UART_SoilMoisture_Decagon.c **** 
 204:.\Generated_Source\PSoC5/UART_SoilMoisture_Decagon.c ****     #if(UART_SoilMoisture_Decagon_INTERNAL_CLOCK_USED)
 205:.\Generated_Source\PSoC5/UART_SoilMoisture_Decagon.c ****         /* Enable the clock. */
 206:.\Generated_Source\PSoC5/UART_SoilMoisture_Decagon.c ****         UART_SoilMoisture_Decagon_IntClock_Start();
 150              		.loc 1 206 0
 151 0046 FFF7FEFF 		bl	UART_SoilMoisture_Decagon_IntClock_Start
 207:.\Generated_Source\PSoC5/UART_SoilMoisture_Decagon.c ****     #endif /* End UART_SoilMoisture_Decagon_INTERNAL_CLOCK_USED */
 208:.\Generated_Source\PSoC5/UART_SoilMoisture_Decagon.c **** 
 209:.\Generated_Source\PSoC5/UART_SoilMoisture_Decagon.c ****     CyExitCriticalSection(enableInterrupts);
 152              		.loc 1 209 0
 153 004a FB79     		ldrb	r3, [r7, #7]	@ zero_extendqisi2
 154 004c 1846     		mov	r0, r3
 155 004e FFF7FEFF 		bl	CyExitCriticalSection
 210:.\Generated_Source\PSoC5/UART_SoilMoisture_Decagon.c **** }
 156              		.loc 1 210 0
 157 0052 07F10807 		add	r7, r7, #8
 158 0056 BD46     		mov	sp, r7
 159 0058 80BD     		pop	{r7, pc}
 160              		.cfi_endproc
 161              	.LFE2:
 162              		.size	UART_SoilMoisture_Decagon_Enable, .-UART_SoilMoisture_Decagon_Enable
 163 005a 00BF     		.section	.text.UART_SoilMoisture_Decagon_Stop,"ax",%progbits
 164              		.align	2
 165              		.global	UART_SoilMoisture_Decagon_Stop
 166              		.thumb
 167              		.thumb_func
 168              		.type	UART_SoilMoisture_Decagon_Stop, %function
 169              	UART_SoilMoisture_Decagon_Stop:
 170              	.LFB3:
 211:.\Generated_Source\PSoC5/UART_SoilMoisture_Decagon.c **** 
 212:.\Generated_Source\PSoC5/UART_SoilMoisture_Decagon.c **** 
 213:.\Generated_Source\PSoC5/UART_SoilMoisture_Decagon.c **** /*******************************************************************************
 214:.\Generated_Source\PSoC5/UART_SoilMoisture_Decagon.c **** * Function Name: UART_SoilMoisture_Decagon_Stop
 215:.\Generated_Source\PSoC5/UART_SoilMoisture_Decagon.c **** ********************************************************************************
 216:.\Generated_Source\PSoC5/UART_SoilMoisture_Decagon.c **** *
 217:.\Generated_Source\PSoC5/UART_SoilMoisture_Decagon.c **** * Summary:
 218:.\Generated_Source\PSoC5/UART_SoilMoisture_Decagon.c **** *  Disable the UART component
 219:.\Generated_Source\PSoC5/UART_SoilMoisture_Decagon.c **** *
 220:.\Generated_Source\PSoC5/UART_SoilMoisture_Decagon.c **** * Parameters:
 221:.\Generated_Source\PSoC5/UART_SoilMoisture_Decagon.c **** *  None.
 222:.\Generated_Source\PSoC5/UART_SoilMoisture_Decagon.c **** *
 223:.\Generated_Source\PSoC5/UART_SoilMoisture_Decagon.c **** * Return:
 224:.\Generated_Source\PSoC5/UART_SoilMoisture_Decagon.c **** *  None.
 225:.\Generated_Source\PSoC5/UART_SoilMoisture_Decagon.c **** *
 226:.\Generated_Source\PSoC5/UART_SoilMoisture_Decagon.c **** *******************************************************************************/
 227:.\Generated_Source\PSoC5/UART_SoilMoisture_Decagon.c **** void UART_SoilMoisture_Decagon_Stop(void) 
 228:.\Generated_Source\PSoC5/UART_SoilMoisture_Decagon.c **** {
 171              		.loc 1 228 0
ARM GAS  C:\Users\hozhen\AppData\Local\Temp\ccp4Cpos.s 			page 8


 172              		.cfi_startproc
 173              		@ args = 0, pretend = 0, frame = 8
 174              		@ frame_needed = 1, uses_anonymous_args = 0
 175 0000 80B5     		push	{r7, lr}
 176              	.LCFI7:
 177              		.cfi_def_cfa_offset 8
 178              		.cfi_offset 7, -8
 179              		.cfi_offset 14, -4
 180 0002 82B0     		sub	sp, sp, #8
 181              	.LCFI8:
 182              		.cfi_def_cfa_offset 16
 183 0004 00AF     		add	r7, sp, #0
 184              	.LCFI9:
 185              		.cfi_def_cfa_register 7
 229:.\Generated_Source\PSoC5/UART_SoilMoisture_Decagon.c ****     uint8 enableInterrupts;
 230:.\Generated_Source\PSoC5/UART_SoilMoisture_Decagon.c ****     enableInterrupts = CyEnterCriticalSection();
 186              		.loc 1 230 0
 187 0006 FFF7FEFF 		bl	CyEnterCriticalSection
 188 000a 0346     		mov	r3, r0
 189 000c FB71     		strb	r3, [r7, #7]
 231:.\Generated_Source\PSoC5/UART_SoilMoisture_Decagon.c **** 
 232:.\Generated_Source\PSoC5/UART_SoilMoisture_Decagon.c ****     /* Write Bit Counter Disable */
 233:.\Generated_Source\PSoC5/UART_SoilMoisture_Decagon.c ****     #if(UART_SoilMoisture_Decagon_RX_ENABLED || UART_SoilMoisture_Decagon_HD_ENABLED)
 234:.\Generated_Source\PSoC5/UART_SoilMoisture_Decagon.c ****         UART_SoilMoisture_Decagon_RXBITCTR_CONTROL_REG &= (uint8)~UART_SoilMoisture_Decagon_CNTR_EN
 190              		.loc 1 234 0
 191 000e 46F29143 		movw	r3, #25745
 192 0012 C4F20003 		movt	r3, 16384
 193 0016 46F29142 		movw	r2, #25745
 194 001a C4F20002 		movt	r2, 16384
 195 001e 1278     		ldrb	r2, [r2, #0]
 196 0020 D2B2     		uxtb	r2, r2
 197 0022 22F02002 		bic	r2, r2, #32
 198 0026 D2B2     		uxtb	r2, r2
 199 0028 1A70     		strb	r2, [r3, #0]
 235:.\Generated_Source\PSoC5/UART_SoilMoisture_Decagon.c ****     #endif /* End UART_SoilMoisture_Decagon_RX_ENABLED */
 236:.\Generated_Source\PSoC5/UART_SoilMoisture_Decagon.c **** 
 237:.\Generated_Source\PSoC5/UART_SoilMoisture_Decagon.c ****     #if(UART_SoilMoisture_Decagon_TX_ENABLED)
 238:.\Generated_Source\PSoC5/UART_SoilMoisture_Decagon.c ****         #if(!UART_SoilMoisture_Decagon_TXCLKGEN_DP)
 239:.\Generated_Source\PSoC5/UART_SoilMoisture_Decagon.c ****             UART_SoilMoisture_Decagon_TXBITCTR_CONTROL_REG &= (uint8)~UART_SoilMoisture_Decagon_CNT
 240:.\Generated_Source\PSoC5/UART_SoilMoisture_Decagon.c ****         #endif /* End UART_SoilMoisture_Decagon_TXCLKGEN_DP */
 241:.\Generated_Source\PSoC5/UART_SoilMoisture_Decagon.c ****     #endif /* UART_SoilMoisture_Decagon_TX_ENABLED */
 242:.\Generated_Source\PSoC5/UART_SoilMoisture_Decagon.c **** 
 243:.\Generated_Source\PSoC5/UART_SoilMoisture_Decagon.c ****     #if(UART_SoilMoisture_Decagon_INTERNAL_CLOCK_USED)
 244:.\Generated_Source\PSoC5/UART_SoilMoisture_Decagon.c ****         /* Disable the clock. */
 245:.\Generated_Source\PSoC5/UART_SoilMoisture_Decagon.c ****         UART_SoilMoisture_Decagon_IntClock_Stop();
 200              		.loc 1 245 0
 201 002a FFF7FEFF 		bl	UART_SoilMoisture_Decagon_IntClock_Stop
 246:.\Generated_Source\PSoC5/UART_SoilMoisture_Decagon.c ****     #endif /* End UART_SoilMoisture_Decagon_INTERNAL_CLOCK_USED */
 247:.\Generated_Source\PSoC5/UART_SoilMoisture_Decagon.c **** 
 248:.\Generated_Source\PSoC5/UART_SoilMoisture_Decagon.c ****     /* Disable internal interrupt component */
 249:.\Generated_Source\PSoC5/UART_SoilMoisture_Decagon.c ****     #if(UART_SoilMoisture_Decagon_RX_ENABLED || UART_SoilMoisture_Decagon_HD_ENABLED)
 250:.\Generated_Source\PSoC5/UART_SoilMoisture_Decagon.c ****         UART_SoilMoisture_Decagon_RXSTATUS_ACTL_REG  &= (uint8)~UART_SoilMoisture_Decagon_INT_ENABL
 202              		.loc 1 250 0
 203 002e 46F29243 		movw	r3, #25746
 204 0032 C4F20003 		movt	r3, 16384
 205 0036 46F29242 		movw	r2, #25746
 206 003a C4F20002 		movt	r2, 16384
ARM GAS  C:\Users\hozhen\AppData\Local\Temp\ccp4Cpos.s 			page 9


 207 003e 1278     		ldrb	r2, [r2, #0]
 208 0040 D2B2     		uxtb	r2, r2
 209 0042 22F01002 		bic	r2, r2, #16
 210 0046 D2B2     		uxtb	r2, r2
 211 0048 1A70     		strb	r2, [r3, #0]
 251:.\Generated_Source\PSoC5/UART_SoilMoisture_Decagon.c ****         #if(UART_SoilMoisture_Decagon_RX_INTERRUPT_ENABLED && (UART_SoilMoisture_Decagon_RXBUFFERSI
 252:.\Generated_Source\PSoC5/UART_SoilMoisture_Decagon.c ****             UART_SoilMoisture_Decagon_DisableRxInt();
 253:.\Generated_Source\PSoC5/UART_SoilMoisture_Decagon.c ****         #endif /* End UART_SoilMoisture_Decagon_RX_INTERRUPT_ENABLED */
 254:.\Generated_Source\PSoC5/UART_SoilMoisture_Decagon.c ****     #endif /* End UART_SoilMoisture_Decagon_RX_ENABLED */
 255:.\Generated_Source\PSoC5/UART_SoilMoisture_Decagon.c **** 
 256:.\Generated_Source\PSoC5/UART_SoilMoisture_Decagon.c ****     #if(UART_SoilMoisture_Decagon_TX_ENABLED)
 257:.\Generated_Source\PSoC5/UART_SoilMoisture_Decagon.c ****         UART_SoilMoisture_Decagon_TXSTATUS_ACTL_REG &= (uint8)~UART_SoilMoisture_Decagon_INT_ENABLE
 258:.\Generated_Source\PSoC5/UART_SoilMoisture_Decagon.c ****         #if(UART_SoilMoisture_Decagon_TX_INTERRUPT_ENABLED && (UART_SoilMoisture_Decagon_TXBUFFERSI
 259:.\Generated_Source\PSoC5/UART_SoilMoisture_Decagon.c ****             UART_SoilMoisture_Decagon_DisableTxInt();
 260:.\Generated_Source\PSoC5/UART_SoilMoisture_Decagon.c ****         #endif /* End UART_SoilMoisture_Decagon_TX_INTERRUPT_ENABLED */
 261:.\Generated_Source\PSoC5/UART_SoilMoisture_Decagon.c ****     #endif /* End UART_SoilMoisture_Decagon_TX_ENABLED */
 262:.\Generated_Source\PSoC5/UART_SoilMoisture_Decagon.c **** 
 263:.\Generated_Source\PSoC5/UART_SoilMoisture_Decagon.c ****     CyExitCriticalSection(enableInterrupts);
 212              		.loc 1 263 0
 213 004a FB79     		ldrb	r3, [r7, #7]	@ zero_extendqisi2
 214 004c 1846     		mov	r0, r3
 215 004e FFF7FEFF 		bl	CyExitCriticalSection
 264:.\Generated_Source\PSoC5/UART_SoilMoisture_Decagon.c **** }
 216              		.loc 1 264 0
 217 0052 07F10807 		add	r7, r7, #8
 218 0056 BD46     		mov	sp, r7
 219 0058 80BD     		pop	{r7, pc}
 220              		.cfi_endproc
 221              	.LFE3:
 222              		.size	UART_SoilMoisture_Decagon_Stop, .-UART_SoilMoisture_Decagon_Stop
 223 005a 00BF     		.section	.text.UART_SoilMoisture_Decagon_ReadControlRegister,"ax",%progbits
 224              		.align	2
 225              		.global	UART_SoilMoisture_Decagon_ReadControlRegister
 226              		.thumb
 227              		.thumb_func
 228              		.type	UART_SoilMoisture_Decagon_ReadControlRegister, %function
 229              	UART_SoilMoisture_Decagon_ReadControlRegister:
 230              	.LFB4:
 265:.\Generated_Source\PSoC5/UART_SoilMoisture_Decagon.c **** 
 266:.\Generated_Source\PSoC5/UART_SoilMoisture_Decagon.c **** 
 267:.\Generated_Source\PSoC5/UART_SoilMoisture_Decagon.c **** /*******************************************************************************
 268:.\Generated_Source\PSoC5/UART_SoilMoisture_Decagon.c **** * Function Name: UART_SoilMoisture_Decagon_ReadControlRegister
 269:.\Generated_Source\PSoC5/UART_SoilMoisture_Decagon.c **** ********************************************************************************
 270:.\Generated_Source\PSoC5/UART_SoilMoisture_Decagon.c **** *
 271:.\Generated_Source\PSoC5/UART_SoilMoisture_Decagon.c **** * Summary:
 272:.\Generated_Source\PSoC5/UART_SoilMoisture_Decagon.c **** *  Read the current state of the control register
 273:.\Generated_Source\PSoC5/UART_SoilMoisture_Decagon.c **** *
 274:.\Generated_Source\PSoC5/UART_SoilMoisture_Decagon.c **** * Parameters:
 275:.\Generated_Source\PSoC5/UART_SoilMoisture_Decagon.c **** *  None.
 276:.\Generated_Source\PSoC5/UART_SoilMoisture_Decagon.c **** *
 277:.\Generated_Source\PSoC5/UART_SoilMoisture_Decagon.c **** * Return:
 278:.\Generated_Source\PSoC5/UART_SoilMoisture_Decagon.c **** *  Current state of the control register.
 279:.\Generated_Source\PSoC5/UART_SoilMoisture_Decagon.c **** *
 280:.\Generated_Source\PSoC5/UART_SoilMoisture_Decagon.c **** *******************************************************************************/
 281:.\Generated_Source\PSoC5/UART_SoilMoisture_Decagon.c **** uint8 UART_SoilMoisture_Decagon_ReadControlRegister(void) 
 282:.\Generated_Source\PSoC5/UART_SoilMoisture_Decagon.c **** {
 231              		.loc 1 282 0
ARM GAS  C:\Users\hozhen\AppData\Local\Temp\ccp4Cpos.s 			page 10


 232              		.cfi_startproc
 233              		@ args = 0, pretend = 0, frame = 0
 234              		@ frame_needed = 1, uses_anonymous_args = 0
 235              		@ link register save eliminated.
 236 0000 80B4     		push	{r7}
 237              	.LCFI10:
 238              		.cfi_def_cfa_offset 4
 239              		.cfi_offset 7, -4
 240 0002 00AF     		add	r7, sp, #0
 241              	.LCFI11:
 242              		.cfi_def_cfa_register 7
 283:.\Generated_Source\PSoC5/UART_SoilMoisture_Decagon.c ****     #if( UART_SoilMoisture_Decagon_CONTROL_REG_REMOVED )
 284:.\Generated_Source\PSoC5/UART_SoilMoisture_Decagon.c ****         return(0u);
 243              		.loc 1 284 0
 244 0004 4FF00003 		mov	r3, #0
 285:.\Generated_Source\PSoC5/UART_SoilMoisture_Decagon.c ****     #else
 286:.\Generated_Source\PSoC5/UART_SoilMoisture_Decagon.c ****         return(UART_SoilMoisture_Decagon_CONTROL_REG);
 287:.\Generated_Source\PSoC5/UART_SoilMoisture_Decagon.c ****     #endif /* End UART_SoilMoisture_Decagon_CONTROL_REG_REMOVED */
 288:.\Generated_Source\PSoC5/UART_SoilMoisture_Decagon.c **** }
 245              		.loc 1 288 0
 246 0008 1846     		mov	r0, r3
 247 000a BD46     		mov	sp, r7
 248 000c 80BC     		pop	{r7}
 249 000e 7047     		bx	lr
 250              		.cfi_endproc
 251              	.LFE4:
 252              		.size	UART_SoilMoisture_Decagon_ReadControlRegister, .-UART_SoilMoisture_Decagon_ReadControlRegist
 253              		.section	.text.UART_SoilMoisture_Decagon_WriteControlRegister,"ax",%progbits
 254              		.align	2
 255              		.global	UART_SoilMoisture_Decagon_WriteControlRegister
 256              		.thumb
 257              		.thumb_func
 258              		.type	UART_SoilMoisture_Decagon_WriteControlRegister, %function
 259              	UART_SoilMoisture_Decagon_WriteControlRegister:
 260              	.LFB5:
 289:.\Generated_Source\PSoC5/UART_SoilMoisture_Decagon.c **** 
 290:.\Generated_Source\PSoC5/UART_SoilMoisture_Decagon.c **** 
 291:.\Generated_Source\PSoC5/UART_SoilMoisture_Decagon.c **** /*******************************************************************************
 292:.\Generated_Source\PSoC5/UART_SoilMoisture_Decagon.c **** * Function Name: UART_SoilMoisture_Decagon_WriteControlRegister
 293:.\Generated_Source\PSoC5/UART_SoilMoisture_Decagon.c **** ********************************************************************************
 294:.\Generated_Source\PSoC5/UART_SoilMoisture_Decagon.c **** *
 295:.\Generated_Source\PSoC5/UART_SoilMoisture_Decagon.c **** * Summary:
 296:.\Generated_Source\PSoC5/UART_SoilMoisture_Decagon.c **** *  Writes an 8-bit value into the control register
 297:.\Generated_Source\PSoC5/UART_SoilMoisture_Decagon.c **** *
 298:.\Generated_Source\PSoC5/UART_SoilMoisture_Decagon.c **** * Parameters:
 299:.\Generated_Source\PSoC5/UART_SoilMoisture_Decagon.c **** *  control:  control register value
 300:.\Generated_Source\PSoC5/UART_SoilMoisture_Decagon.c **** *
 301:.\Generated_Source\PSoC5/UART_SoilMoisture_Decagon.c **** * Return:
 302:.\Generated_Source\PSoC5/UART_SoilMoisture_Decagon.c **** *  None.
 303:.\Generated_Source\PSoC5/UART_SoilMoisture_Decagon.c **** *
 304:.\Generated_Source\PSoC5/UART_SoilMoisture_Decagon.c **** *******************************************************************************/
 305:.\Generated_Source\PSoC5/UART_SoilMoisture_Decagon.c **** void  UART_SoilMoisture_Decagon_WriteControlRegister(uint8 control) 
 306:.\Generated_Source\PSoC5/UART_SoilMoisture_Decagon.c **** {
 261              		.loc 1 306 0
 262              		.cfi_startproc
 263              		@ args = 0, pretend = 0, frame = 8
 264              		@ frame_needed = 1, uses_anonymous_args = 0
ARM GAS  C:\Users\hozhen\AppData\Local\Temp\ccp4Cpos.s 			page 11


 265              		@ link register save eliminated.
 266 0000 80B4     		push	{r7}
 267              	.LCFI12:
 268              		.cfi_def_cfa_offset 4
 269              		.cfi_offset 7, -4
 270 0002 83B0     		sub	sp, sp, #12
 271              	.LCFI13:
 272              		.cfi_def_cfa_offset 16
 273 0004 00AF     		add	r7, sp, #0
 274              	.LCFI14:
 275              		.cfi_def_cfa_register 7
 276 0006 0346     		mov	r3, r0
 277 0008 FB71     		strb	r3, [r7, #7]
 307:.\Generated_Source\PSoC5/UART_SoilMoisture_Decagon.c ****     #if( UART_SoilMoisture_Decagon_CONTROL_REG_REMOVED )
 308:.\Generated_Source\PSoC5/UART_SoilMoisture_Decagon.c ****         if(control != 0u) { }      /* release compiler warning */
 309:.\Generated_Source\PSoC5/UART_SoilMoisture_Decagon.c ****     #else
 310:.\Generated_Source\PSoC5/UART_SoilMoisture_Decagon.c ****        UART_SoilMoisture_Decagon_CONTROL_REG = control;
 311:.\Generated_Source\PSoC5/UART_SoilMoisture_Decagon.c ****     #endif /* End UART_SoilMoisture_Decagon_CONTROL_REG_REMOVED */
 312:.\Generated_Source\PSoC5/UART_SoilMoisture_Decagon.c **** }
 278              		.loc 1 312 0
 279 000a 07F10C07 		add	r7, r7, #12
 280 000e BD46     		mov	sp, r7
 281 0010 80BC     		pop	{r7}
 282 0012 7047     		bx	lr
 283              		.cfi_endproc
 284              	.LFE5:
 285              		.size	UART_SoilMoisture_Decagon_WriteControlRegister, .-UART_SoilMoisture_Decagon_WriteControlRegi
 286              		.section	.text.UART_SoilMoisture_Decagon_SetRxInterruptMode,"ax",%progbits
 287              		.align	2
 288              		.global	UART_SoilMoisture_Decagon_SetRxInterruptMode
 289              		.thumb
 290              		.thumb_func
 291              		.type	UART_SoilMoisture_Decagon_SetRxInterruptMode, %function
 292              	UART_SoilMoisture_Decagon_SetRxInterruptMode:
 293              	.LFB6:
 313:.\Generated_Source\PSoC5/UART_SoilMoisture_Decagon.c **** 
 314:.\Generated_Source\PSoC5/UART_SoilMoisture_Decagon.c **** 
 315:.\Generated_Source\PSoC5/UART_SoilMoisture_Decagon.c **** #if(UART_SoilMoisture_Decagon_RX_ENABLED || UART_SoilMoisture_Decagon_HD_ENABLED)
 316:.\Generated_Source\PSoC5/UART_SoilMoisture_Decagon.c **** 
 317:.\Generated_Source\PSoC5/UART_SoilMoisture_Decagon.c ****     #if(UART_SoilMoisture_Decagon_RX_INTERRUPT_ENABLED)
 318:.\Generated_Source\PSoC5/UART_SoilMoisture_Decagon.c **** 
 319:.\Generated_Source\PSoC5/UART_SoilMoisture_Decagon.c ****         /*******************************************************************************
 320:.\Generated_Source\PSoC5/UART_SoilMoisture_Decagon.c ****         * Function Name: UART_SoilMoisture_Decagon_EnableRxInt
 321:.\Generated_Source\PSoC5/UART_SoilMoisture_Decagon.c ****         ********************************************************************************
 322:.\Generated_Source\PSoC5/UART_SoilMoisture_Decagon.c ****         *
 323:.\Generated_Source\PSoC5/UART_SoilMoisture_Decagon.c ****         * Summary:
 324:.\Generated_Source\PSoC5/UART_SoilMoisture_Decagon.c ****         *  Enable RX interrupt generation
 325:.\Generated_Source\PSoC5/UART_SoilMoisture_Decagon.c ****         *
 326:.\Generated_Source\PSoC5/UART_SoilMoisture_Decagon.c ****         * Parameters:
 327:.\Generated_Source\PSoC5/UART_SoilMoisture_Decagon.c ****         *  None.
 328:.\Generated_Source\PSoC5/UART_SoilMoisture_Decagon.c ****         *
 329:.\Generated_Source\PSoC5/UART_SoilMoisture_Decagon.c ****         * Return:
 330:.\Generated_Source\PSoC5/UART_SoilMoisture_Decagon.c ****         *  None.
 331:.\Generated_Source\PSoC5/UART_SoilMoisture_Decagon.c ****         *
 332:.\Generated_Source\PSoC5/UART_SoilMoisture_Decagon.c ****         * Theory:
 333:.\Generated_Source\PSoC5/UART_SoilMoisture_Decagon.c ****         *  Enable the interrupt output -or- the interrupt component itself
 334:.\Generated_Source\PSoC5/UART_SoilMoisture_Decagon.c ****         *
ARM GAS  C:\Users\hozhen\AppData\Local\Temp\ccp4Cpos.s 			page 12


 335:.\Generated_Source\PSoC5/UART_SoilMoisture_Decagon.c ****         *******************************************************************************/
 336:.\Generated_Source\PSoC5/UART_SoilMoisture_Decagon.c ****         void UART_SoilMoisture_Decagon_EnableRxInt(void) 
 337:.\Generated_Source\PSoC5/UART_SoilMoisture_Decagon.c ****         {
 338:.\Generated_Source\PSoC5/UART_SoilMoisture_Decagon.c ****             CyIntEnable(UART_SoilMoisture_Decagon_RX_VECT_NUM);
 339:.\Generated_Source\PSoC5/UART_SoilMoisture_Decagon.c ****         }
 340:.\Generated_Source\PSoC5/UART_SoilMoisture_Decagon.c **** 
 341:.\Generated_Source\PSoC5/UART_SoilMoisture_Decagon.c **** 
 342:.\Generated_Source\PSoC5/UART_SoilMoisture_Decagon.c ****         /*******************************************************************************
 343:.\Generated_Source\PSoC5/UART_SoilMoisture_Decagon.c ****         * Function Name: UART_SoilMoisture_Decagon_DisableRxInt
 344:.\Generated_Source\PSoC5/UART_SoilMoisture_Decagon.c ****         ********************************************************************************
 345:.\Generated_Source\PSoC5/UART_SoilMoisture_Decagon.c ****         *
 346:.\Generated_Source\PSoC5/UART_SoilMoisture_Decagon.c ****         * Summary:
 347:.\Generated_Source\PSoC5/UART_SoilMoisture_Decagon.c ****         *  Disable RX interrupt generation
 348:.\Generated_Source\PSoC5/UART_SoilMoisture_Decagon.c ****         *
 349:.\Generated_Source\PSoC5/UART_SoilMoisture_Decagon.c ****         * Parameters:
 350:.\Generated_Source\PSoC5/UART_SoilMoisture_Decagon.c ****         *  None.
 351:.\Generated_Source\PSoC5/UART_SoilMoisture_Decagon.c ****         *
 352:.\Generated_Source\PSoC5/UART_SoilMoisture_Decagon.c ****         * Return:
 353:.\Generated_Source\PSoC5/UART_SoilMoisture_Decagon.c ****         *  None.
 354:.\Generated_Source\PSoC5/UART_SoilMoisture_Decagon.c ****         *
 355:.\Generated_Source\PSoC5/UART_SoilMoisture_Decagon.c ****         * Theory:
 356:.\Generated_Source\PSoC5/UART_SoilMoisture_Decagon.c ****         *  Disable the interrupt output -or- the interrupt component itself
 357:.\Generated_Source\PSoC5/UART_SoilMoisture_Decagon.c ****         *
 358:.\Generated_Source\PSoC5/UART_SoilMoisture_Decagon.c ****         *******************************************************************************/
 359:.\Generated_Source\PSoC5/UART_SoilMoisture_Decagon.c ****         void UART_SoilMoisture_Decagon_DisableRxInt(void) 
 360:.\Generated_Source\PSoC5/UART_SoilMoisture_Decagon.c ****         {
 361:.\Generated_Source\PSoC5/UART_SoilMoisture_Decagon.c ****             CyIntDisable(UART_SoilMoisture_Decagon_RX_VECT_NUM);
 362:.\Generated_Source\PSoC5/UART_SoilMoisture_Decagon.c ****         }
 363:.\Generated_Source\PSoC5/UART_SoilMoisture_Decagon.c **** 
 364:.\Generated_Source\PSoC5/UART_SoilMoisture_Decagon.c ****     #endif /* UART_SoilMoisture_Decagon_RX_INTERRUPT_ENABLED */
 365:.\Generated_Source\PSoC5/UART_SoilMoisture_Decagon.c **** 
 366:.\Generated_Source\PSoC5/UART_SoilMoisture_Decagon.c **** 
 367:.\Generated_Source\PSoC5/UART_SoilMoisture_Decagon.c ****     /*******************************************************************************
 368:.\Generated_Source\PSoC5/UART_SoilMoisture_Decagon.c ****     * Function Name: UART_SoilMoisture_Decagon_SetRxInterruptMode
 369:.\Generated_Source\PSoC5/UART_SoilMoisture_Decagon.c ****     ********************************************************************************
 370:.\Generated_Source\PSoC5/UART_SoilMoisture_Decagon.c ****     *
 371:.\Generated_Source\PSoC5/UART_SoilMoisture_Decagon.c ****     * Summary:
 372:.\Generated_Source\PSoC5/UART_SoilMoisture_Decagon.c ****     *  Configure which status bits trigger an interrupt event
 373:.\Generated_Source\PSoC5/UART_SoilMoisture_Decagon.c ****     *
 374:.\Generated_Source\PSoC5/UART_SoilMoisture_Decagon.c ****     * Parameters:
 375:.\Generated_Source\PSoC5/UART_SoilMoisture_Decagon.c ****     *  IntSrc:  An or'd combination of the desired status bit masks (defined in
 376:.\Generated_Source\PSoC5/UART_SoilMoisture_Decagon.c ****     *           the header file)
 377:.\Generated_Source\PSoC5/UART_SoilMoisture_Decagon.c ****     *
 378:.\Generated_Source\PSoC5/UART_SoilMoisture_Decagon.c ****     * Return:
 379:.\Generated_Source\PSoC5/UART_SoilMoisture_Decagon.c ****     *  None.
 380:.\Generated_Source\PSoC5/UART_SoilMoisture_Decagon.c ****     *
 381:.\Generated_Source\PSoC5/UART_SoilMoisture_Decagon.c ****     * Theory:
 382:.\Generated_Source\PSoC5/UART_SoilMoisture_Decagon.c ****     *  Enables the output of specific status bits to the interrupt controller
 383:.\Generated_Source\PSoC5/UART_SoilMoisture_Decagon.c ****     *
 384:.\Generated_Source\PSoC5/UART_SoilMoisture_Decagon.c ****     *******************************************************************************/
 385:.\Generated_Source\PSoC5/UART_SoilMoisture_Decagon.c ****     void UART_SoilMoisture_Decagon_SetRxInterruptMode(uint8 intSrc) 
 386:.\Generated_Source\PSoC5/UART_SoilMoisture_Decagon.c ****     {
 294              		.loc 1 386 0
 295              		.cfi_startproc
 296              		@ args = 0, pretend = 0, frame = 8
 297              		@ frame_needed = 1, uses_anonymous_args = 0
 298              		@ link register save eliminated.
ARM GAS  C:\Users\hozhen\AppData\Local\Temp\ccp4Cpos.s 			page 13


 299 0000 80B4     		push	{r7}
 300              	.LCFI15:
 301              		.cfi_def_cfa_offset 4
 302              		.cfi_offset 7, -4
 303 0002 83B0     		sub	sp, sp, #12
 304              	.LCFI16:
 305              		.cfi_def_cfa_offset 16
 306 0004 00AF     		add	r7, sp, #0
 307              	.LCFI17:
 308              		.cfi_def_cfa_register 7
 309 0006 0346     		mov	r3, r0
 310 0008 FB71     		strb	r3, [r7, #7]
 387:.\Generated_Source\PSoC5/UART_SoilMoisture_Decagon.c ****         UART_SoilMoisture_Decagon_RXSTATUS_MASK_REG  = intSrc;
 311              		.loc 1 387 0
 312 000a 46F28243 		movw	r3, #25730
 313 000e C4F20003 		movt	r3, 16384
 314 0012 FA79     		ldrb	r2, [r7, #7]
 315 0014 1A70     		strb	r2, [r3, #0]
 388:.\Generated_Source\PSoC5/UART_SoilMoisture_Decagon.c ****     }
 316              		.loc 1 388 0
 317 0016 07F10C07 		add	r7, r7, #12
 318 001a BD46     		mov	sp, r7
 319 001c 80BC     		pop	{r7}
 320 001e 7047     		bx	lr
 321              		.cfi_endproc
 322              	.LFE6:
 323              		.size	UART_SoilMoisture_Decagon_SetRxInterruptMode, .-UART_SoilMoisture_Decagon_SetRxInterruptMode
 324              		.section	.text.UART_SoilMoisture_Decagon_ReadRxData,"ax",%progbits
 325              		.align	2
 326              		.global	UART_SoilMoisture_Decagon_ReadRxData
 327              		.thumb
 328              		.thumb_func
 329              		.type	UART_SoilMoisture_Decagon_ReadRxData, %function
 330              	UART_SoilMoisture_Decagon_ReadRxData:
 331              	.LFB7:
 389:.\Generated_Source\PSoC5/UART_SoilMoisture_Decagon.c **** 
 390:.\Generated_Source\PSoC5/UART_SoilMoisture_Decagon.c **** 
 391:.\Generated_Source\PSoC5/UART_SoilMoisture_Decagon.c ****     /*******************************************************************************
 392:.\Generated_Source\PSoC5/UART_SoilMoisture_Decagon.c ****     * Function Name: UART_SoilMoisture_Decagon_ReadRxData
 393:.\Generated_Source\PSoC5/UART_SoilMoisture_Decagon.c ****     ********************************************************************************
 394:.\Generated_Source\PSoC5/UART_SoilMoisture_Decagon.c ****     *
 395:.\Generated_Source\PSoC5/UART_SoilMoisture_Decagon.c ****     * Summary:
 396:.\Generated_Source\PSoC5/UART_SoilMoisture_Decagon.c ****     *  Returns data in RX Data register without checking status register to
 397:.\Generated_Source\PSoC5/UART_SoilMoisture_Decagon.c ****     *  determine if data is valid
 398:.\Generated_Source\PSoC5/UART_SoilMoisture_Decagon.c ****     *
 399:.\Generated_Source\PSoC5/UART_SoilMoisture_Decagon.c ****     * Parameters:
 400:.\Generated_Source\PSoC5/UART_SoilMoisture_Decagon.c ****     *  None.
 401:.\Generated_Source\PSoC5/UART_SoilMoisture_Decagon.c ****     *
 402:.\Generated_Source\PSoC5/UART_SoilMoisture_Decagon.c ****     * Return:
 403:.\Generated_Source\PSoC5/UART_SoilMoisture_Decagon.c ****     *  Received data from RX register
 404:.\Generated_Source\PSoC5/UART_SoilMoisture_Decagon.c ****     *
 405:.\Generated_Source\PSoC5/UART_SoilMoisture_Decagon.c ****     * Global Variables:
 406:.\Generated_Source\PSoC5/UART_SoilMoisture_Decagon.c ****     *  UART_SoilMoisture_Decagon_rxBuffer - RAM buffer pointer for save received data.
 407:.\Generated_Source\PSoC5/UART_SoilMoisture_Decagon.c ****     *  UART_SoilMoisture_Decagon_rxBufferWrite - cyclic index for write to rxBuffer,
 408:.\Generated_Source\PSoC5/UART_SoilMoisture_Decagon.c ****     *     checked to identify new data.
 409:.\Generated_Source\PSoC5/UART_SoilMoisture_Decagon.c ****     *  UART_SoilMoisture_Decagon_rxBufferRead - cyclic index for read from rxBuffer,
 410:.\Generated_Source\PSoC5/UART_SoilMoisture_Decagon.c ****     *     incremented after each byte has been read from buffer.
ARM GAS  C:\Users\hozhen\AppData\Local\Temp\ccp4Cpos.s 			page 14


 411:.\Generated_Source\PSoC5/UART_SoilMoisture_Decagon.c ****     *  UART_SoilMoisture_Decagon_rxBufferLoopDetect - creared if loop condition was detected
 412:.\Generated_Source\PSoC5/UART_SoilMoisture_Decagon.c ****     *     in RX ISR.
 413:.\Generated_Source\PSoC5/UART_SoilMoisture_Decagon.c ****     *
 414:.\Generated_Source\PSoC5/UART_SoilMoisture_Decagon.c ****     * Reentrant:
 415:.\Generated_Source\PSoC5/UART_SoilMoisture_Decagon.c ****     *  No.
 416:.\Generated_Source\PSoC5/UART_SoilMoisture_Decagon.c ****     *
 417:.\Generated_Source\PSoC5/UART_SoilMoisture_Decagon.c ****     *******************************************************************************/
 418:.\Generated_Source\PSoC5/UART_SoilMoisture_Decagon.c ****     uint8 UART_SoilMoisture_Decagon_ReadRxData(void) 
 419:.\Generated_Source\PSoC5/UART_SoilMoisture_Decagon.c ****     {
 332              		.loc 1 419 0
 333              		.cfi_startproc
 334              		@ args = 0, pretend = 0, frame = 8
 335              		@ frame_needed = 1, uses_anonymous_args = 0
 336              		@ link register save eliminated.
 337 0000 80B4     		push	{r7}
 338              	.LCFI18:
 339              		.cfi_def_cfa_offset 4
 340              		.cfi_offset 7, -4
 341 0002 83B0     		sub	sp, sp, #12
 342              	.LCFI19:
 343              		.cfi_def_cfa_offset 16
 344 0004 00AF     		add	r7, sp, #0
 345              	.LCFI20:
 346              		.cfi_def_cfa_register 7
 420:.\Generated_Source\PSoC5/UART_SoilMoisture_Decagon.c ****         uint8 rxData;
 421:.\Generated_Source\PSoC5/UART_SoilMoisture_Decagon.c **** 
 422:.\Generated_Source\PSoC5/UART_SoilMoisture_Decagon.c ****         #if(UART_SoilMoisture_Decagon_RXBUFFERSIZE > UART_SoilMoisture_Decagon_FIFO_LENGTH)
 423:.\Generated_Source\PSoC5/UART_SoilMoisture_Decagon.c ****             uint8 loc_rxBufferRead;
 424:.\Generated_Source\PSoC5/UART_SoilMoisture_Decagon.c ****             uint8 loc_rxBufferWrite;
 425:.\Generated_Source\PSoC5/UART_SoilMoisture_Decagon.c ****             /* Protect variables that could change on interrupt. */
 426:.\Generated_Source\PSoC5/UART_SoilMoisture_Decagon.c ****             /* Disable Rx interrupt. */
 427:.\Generated_Source\PSoC5/UART_SoilMoisture_Decagon.c ****             #if(UART_SoilMoisture_Decagon_RX_INTERRUPT_ENABLED)
 428:.\Generated_Source\PSoC5/UART_SoilMoisture_Decagon.c ****                 UART_SoilMoisture_Decagon_DisableRxInt();
 429:.\Generated_Source\PSoC5/UART_SoilMoisture_Decagon.c ****             #endif /* UART_SoilMoisture_Decagon_RX_INTERRUPT_ENABLED */
 430:.\Generated_Source\PSoC5/UART_SoilMoisture_Decagon.c ****             loc_rxBufferRead = UART_SoilMoisture_Decagon_rxBufferRead;
 431:.\Generated_Source\PSoC5/UART_SoilMoisture_Decagon.c ****             loc_rxBufferWrite = UART_SoilMoisture_Decagon_rxBufferWrite;
 432:.\Generated_Source\PSoC5/UART_SoilMoisture_Decagon.c **** 
 433:.\Generated_Source\PSoC5/UART_SoilMoisture_Decagon.c ****             if( (UART_SoilMoisture_Decagon_rxBufferLoopDetect != 0u) || (loc_rxBufferRead != loc_rx
 434:.\Generated_Source\PSoC5/UART_SoilMoisture_Decagon.c ****             {
 435:.\Generated_Source\PSoC5/UART_SoilMoisture_Decagon.c ****                 rxData = UART_SoilMoisture_Decagon_rxBuffer[loc_rxBufferRead];
 436:.\Generated_Source\PSoC5/UART_SoilMoisture_Decagon.c ****                 loc_rxBufferRead++;
 437:.\Generated_Source\PSoC5/UART_SoilMoisture_Decagon.c **** 
 438:.\Generated_Source\PSoC5/UART_SoilMoisture_Decagon.c ****                 if(loc_rxBufferRead >= UART_SoilMoisture_Decagon_RXBUFFERSIZE)
 439:.\Generated_Source\PSoC5/UART_SoilMoisture_Decagon.c ****                 {
 440:.\Generated_Source\PSoC5/UART_SoilMoisture_Decagon.c ****                     loc_rxBufferRead = 0u;
 441:.\Generated_Source\PSoC5/UART_SoilMoisture_Decagon.c ****                 }
 442:.\Generated_Source\PSoC5/UART_SoilMoisture_Decagon.c ****                 /* Update the real pointer */
 443:.\Generated_Source\PSoC5/UART_SoilMoisture_Decagon.c ****                 UART_SoilMoisture_Decagon_rxBufferRead = loc_rxBufferRead;
 444:.\Generated_Source\PSoC5/UART_SoilMoisture_Decagon.c **** 
 445:.\Generated_Source\PSoC5/UART_SoilMoisture_Decagon.c ****                 if(UART_SoilMoisture_Decagon_rxBufferLoopDetect != 0u )
 446:.\Generated_Source\PSoC5/UART_SoilMoisture_Decagon.c ****                 {
 447:.\Generated_Source\PSoC5/UART_SoilMoisture_Decagon.c ****                     UART_SoilMoisture_Decagon_rxBufferLoopDetect = 0u;
 448:.\Generated_Source\PSoC5/UART_SoilMoisture_Decagon.c ****                     #if( (UART_SoilMoisture_Decagon_RX_INTERRUPT_ENABLED) && (UART_SoilMoisture_Dec
 449:.\Generated_Source\PSoC5/UART_SoilMoisture_Decagon.c ****                          (UART_SoilMoisture_Decagon_RXBUFFERSIZE > UART_SoilMoisture_Decagon_FIFO_L
 450:.\Generated_Source\PSoC5/UART_SoilMoisture_Decagon.c ****                         /* When Hardware Flow Control selected - return RX mask */
 451:.\Generated_Source\PSoC5/UART_SoilMoisture_Decagon.c ****                         #if( UART_SoilMoisture_Decagon_HD_ENABLED )
 452:.\Generated_Source\PSoC5/UART_SoilMoisture_Decagon.c ****                             if((UART_SoilMoisture_Decagon_CONTROL_REG & UART_SoilMoisture_Decagon_C
ARM GAS  C:\Users\hozhen\AppData\Local\Temp\ccp4Cpos.s 			page 15


 453:.\Generated_Source\PSoC5/UART_SoilMoisture_Decagon.c ****                             {   /* In Half duplex mode return RX mask only in RX
 454:.\Generated_Source\PSoC5/UART_SoilMoisture_Decagon.c ****                                 *  configuration set, otherwise
 455:.\Generated_Source\PSoC5/UART_SoilMoisture_Decagon.c ****                                 *  mask will be returned in LoadRxConfig() API.
 456:.\Generated_Source\PSoC5/UART_SoilMoisture_Decagon.c ****                                 */
 457:.\Generated_Source\PSoC5/UART_SoilMoisture_Decagon.c ****                                 UART_SoilMoisture_Decagon_RXSTATUS_MASK_REG  |= UART_SoilMoisture_D
 458:.\Generated_Source\PSoC5/UART_SoilMoisture_Decagon.c ****                             }
 459:.\Generated_Source\PSoC5/UART_SoilMoisture_Decagon.c ****                         #else
 460:.\Generated_Source\PSoC5/UART_SoilMoisture_Decagon.c ****                             UART_SoilMoisture_Decagon_RXSTATUS_MASK_REG  |= UART_SoilMoisture_Decag
 461:.\Generated_Source\PSoC5/UART_SoilMoisture_Decagon.c ****                         #endif /* end UART_SoilMoisture_Decagon_HD_ENABLED */
 462:.\Generated_Source\PSoC5/UART_SoilMoisture_Decagon.c ****                     #endif /* UART_SoilMoisture_Decagon_RX_INTERRUPT_ENABLED and Hardware flow cont
 463:.\Generated_Source\PSoC5/UART_SoilMoisture_Decagon.c ****                 }
 464:.\Generated_Source\PSoC5/UART_SoilMoisture_Decagon.c ****             }
 465:.\Generated_Source\PSoC5/UART_SoilMoisture_Decagon.c ****             else
 466:.\Generated_Source\PSoC5/UART_SoilMoisture_Decagon.c ****             {   /* Needs to check status for RX_STS_FIFO_NOTEMPTY bit*/
 467:.\Generated_Source\PSoC5/UART_SoilMoisture_Decagon.c ****                 rxData = UART_SoilMoisture_Decagon_RXDATA_REG;
 468:.\Generated_Source\PSoC5/UART_SoilMoisture_Decagon.c ****             }
 469:.\Generated_Source\PSoC5/UART_SoilMoisture_Decagon.c **** 
 470:.\Generated_Source\PSoC5/UART_SoilMoisture_Decagon.c ****             /* Enable Rx interrupt. */
 471:.\Generated_Source\PSoC5/UART_SoilMoisture_Decagon.c ****             #if(UART_SoilMoisture_Decagon_RX_INTERRUPT_ENABLED)
 472:.\Generated_Source\PSoC5/UART_SoilMoisture_Decagon.c ****                 UART_SoilMoisture_Decagon_EnableRxInt();
 473:.\Generated_Source\PSoC5/UART_SoilMoisture_Decagon.c ****             #endif /* End UART_SoilMoisture_Decagon_RX_INTERRUPT_ENABLED */
 474:.\Generated_Source\PSoC5/UART_SoilMoisture_Decagon.c **** 
 475:.\Generated_Source\PSoC5/UART_SoilMoisture_Decagon.c ****         #else /* UART_SoilMoisture_Decagon_RXBUFFERSIZE > UART_SoilMoisture_Decagon_FIFO_LENGTH */
 476:.\Generated_Source\PSoC5/UART_SoilMoisture_Decagon.c **** 
 477:.\Generated_Source\PSoC5/UART_SoilMoisture_Decagon.c ****             /* Needs to check status for RX_STS_FIFO_NOTEMPTY bit*/
 478:.\Generated_Source\PSoC5/UART_SoilMoisture_Decagon.c ****             rxData = UART_SoilMoisture_Decagon_RXDATA_REG;
 347              		.loc 1 478 0
 348 0006 46F24243 		movw	r3, #25666
 349 000a C4F20003 		movt	r3, 16384
 350 000e 1B78     		ldrb	r3, [r3, #0]
 351 0010 FB71     		strb	r3, [r7, #7]
 479:.\Generated_Source\PSoC5/UART_SoilMoisture_Decagon.c **** 
 480:.\Generated_Source\PSoC5/UART_SoilMoisture_Decagon.c ****         #endif /* UART_SoilMoisture_Decagon_RXBUFFERSIZE > UART_SoilMoisture_Decagon_FIFO_LENGTH */
 481:.\Generated_Source\PSoC5/UART_SoilMoisture_Decagon.c **** 
 482:.\Generated_Source\PSoC5/UART_SoilMoisture_Decagon.c ****         return(rxData);
 352              		.loc 1 482 0
 353 0012 FB79     		ldrb	r3, [r7, #7]	@ zero_extendqisi2
 483:.\Generated_Source\PSoC5/UART_SoilMoisture_Decagon.c ****     }
 354              		.loc 1 483 0
 355 0014 1846     		mov	r0, r3
 356 0016 07F10C07 		add	r7, r7, #12
 357 001a BD46     		mov	sp, r7
 358 001c 80BC     		pop	{r7}
 359 001e 7047     		bx	lr
 360              		.cfi_endproc
 361              	.LFE7:
 362              		.size	UART_SoilMoisture_Decagon_ReadRxData, .-UART_SoilMoisture_Decagon_ReadRxData
 363              		.section	.text.UART_SoilMoisture_Decagon_ReadRxStatus,"ax",%progbits
 364              		.align	2
 365              		.global	UART_SoilMoisture_Decagon_ReadRxStatus
 366              		.thumb
 367              		.thumb_func
 368              		.type	UART_SoilMoisture_Decagon_ReadRxStatus, %function
 369              	UART_SoilMoisture_Decagon_ReadRxStatus:
 370              	.LFB8:
 484:.\Generated_Source\PSoC5/UART_SoilMoisture_Decagon.c **** 
 485:.\Generated_Source\PSoC5/UART_SoilMoisture_Decagon.c **** 
ARM GAS  C:\Users\hozhen\AppData\Local\Temp\ccp4Cpos.s 			page 16


 486:.\Generated_Source\PSoC5/UART_SoilMoisture_Decagon.c ****     /*******************************************************************************
 487:.\Generated_Source\PSoC5/UART_SoilMoisture_Decagon.c ****     * Function Name: UART_SoilMoisture_Decagon_ReadRxStatus
 488:.\Generated_Source\PSoC5/UART_SoilMoisture_Decagon.c ****     ********************************************************************************
 489:.\Generated_Source\PSoC5/UART_SoilMoisture_Decagon.c ****     *
 490:.\Generated_Source\PSoC5/UART_SoilMoisture_Decagon.c ****     * Summary:
 491:.\Generated_Source\PSoC5/UART_SoilMoisture_Decagon.c ****     *  Read the current state of the status register
 492:.\Generated_Source\PSoC5/UART_SoilMoisture_Decagon.c ****     *  And detect software buffer overflow.
 493:.\Generated_Source\PSoC5/UART_SoilMoisture_Decagon.c ****     *
 494:.\Generated_Source\PSoC5/UART_SoilMoisture_Decagon.c ****     * Parameters:
 495:.\Generated_Source\PSoC5/UART_SoilMoisture_Decagon.c ****     *  None.
 496:.\Generated_Source\PSoC5/UART_SoilMoisture_Decagon.c ****     *
 497:.\Generated_Source\PSoC5/UART_SoilMoisture_Decagon.c ****     * Return:
 498:.\Generated_Source\PSoC5/UART_SoilMoisture_Decagon.c ****     *  Current state of the status register.
 499:.\Generated_Source\PSoC5/UART_SoilMoisture_Decagon.c ****     *
 500:.\Generated_Source\PSoC5/UART_SoilMoisture_Decagon.c ****     * Global Variables:
 501:.\Generated_Source\PSoC5/UART_SoilMoisture_Decagon.c ****     *  UART_SoilMoisture_Decagon_rxBufferOverflow - used to indicate overload condition.
 502:.\Generated_Source\PSoC5/UART_SoilMoisture_Decagon.c ****     *   It set to one in RX interrupt when there isn?t free space in
 503:.\Generated_Source\PSoC5/UART_SoilMoisture_Decagon.c ****     *   UART_SoilMoisture_Decagon_rxBufferRead to write new data. This condition returned
 504:.\Generated_Source\PSoC5/UART_SoilMoisture_Decagon.c ****     *   and cleared to zero by this API as an
 505:.\Generated_Source\PSoC5/UART_SoilMoisture_Decagon.c ****     *   UART_SoilMoisture_Decagon_RX_STS_SOFT_BUFF_OVER bit along with RX Status register
 506:.\Generated_Source\PSoC5/UART_SoilMoisture_Decagon.c ****     *   bits.
 507:.\Generated_Source\PSoC5/UART_SoilMoisture_Decagon.c ****     *
 508:.\Generated_Source\PSoC5/UART_SoilMoisture_Decagon.c ****     *******************************************************************************/
 509:.\Generated_Source\PSoC5/UART_SoilMoisture_Decagon.c ****     uint8 UART_SoilMoisture_Decagon_ReadRxStatus(void) 
 510:.\Generated_Source\PSoC5/UART_SoilMoisture_Decagon.c ****     {
 371              		.loc 1 510 0
 372              		.cfi_startproc
 373              		@ args = 0, pretend = 0, frame = 8
 374              		@ frame_needed = 1, uses_anonymous_args = 0
 375              		@ link register save eliminated.
 376 0000 80B4     		push	{r7}
 377              	.LCFI21:
 378              		.cfi_def_cfa_offset 4
 379              		.cfi_offset 7, -4
 380 0002 83B0     		sub	sp, sp, #12
 381              	.LCFI22:
 382              		.cfi_def_cfa_offset 16
 383 0004 00AF     		add	r7, sp, #0
 384              	.LCFI23:
 385              		.cfi_def_cfa_register 7
 511:.\Generated_Source\PSoC5/UART_SoilMoisture_Decagon.c ****         uint8 status;
 512:.\Generated_Source\PSoC5/UART_SoilMoisture_Decagon.c **** 
 513:.\Generated_Source\PSoC5/UART_SoilMoisture_Decagon.c ****         status = UART_SoilMoisture_Decagon_RXSTATUS_REG & UART_SoilMoisture_Decagon_RX_HW_MASK;
 386              		.loc 1 513 0
 387 0006 46F26243 		movw	r3, #25698
 388 000a C4F20003 		movt	r3, 16384
 389 000e 1B78     		ldrb	r3, [r3, #0]
 390 0010 DBB2     		uxtb	r3, r3
 391 0012 03F07F03 		and	r3, r3, #127
 392 0016 FB71     		strb	r3, [r7, #7]
 514:.\Generated_Source\PSoC5/UART_SoilMoisture_Decagon.c **** 
 515:.\Generated_Source\PSoC5/UART_SoilMoisture_Decagon.c ****         #if(UART_SoilMoisture_Decagon_RXBUFFERSIZE > UART_SoilMoisture_Decagon_FIFO_LENGTH)
 516:.\Generated_Source\PSoC5/UART_SoilMoisture_Decagon.c ****             if( UART_SoilMoisture_Decagon_rxBufferOverflow != 0u )
 517:.\Generated_Source\PSoC5/UART_SoilMoisture_Decagon.c ****             {
 518:.\Generated_Source\PSoC5/UART_SoilMoisture_Decagon.c ****                 status |= UART_SoilMoisture_Decagon_RX_STS_SOFT_BUFF_OVER;
 519:.\Generated_Source\PSoC5/UART_SoilMoisture_Decagon.c ****                 UART_SoilMoisture_Decagon_rxBufferOverflow = 0u;
 520:.\Generated_Source\PSoC5/UART_SoilMoisture_Decagon.c ****             }
ARM GAS  C:\Users\hozhen\AppData\Local\Temp\ccp4Cpos.s 			page 17


 521:.\Generated_Source\PSoC5/UART_SoilMoisture_Decagon.c ****         #endif /* UART_SoilMoisture_Decagon_RXBUFFERSIZE */
 522:.\Generated_Source\PSoC5/UART_SoilMoisture_Decagon.c **** 
 523:.\Generated_Source\PSoC5/UART_SoilMoisture_Decagon.c ****         return(status);
 393              		.loc 1 523 0
 394 0018 FB79     		ldrb	r3, [r7, #7]	@ zero_extendqisi2
 524:.\Generated_Source\PSoC5/UART_SoilMoisture_Decagon.c ****     }
 395              		.loc 1 524 0
 396 001a 1846     		mov	r0, r3
 397 001c 07F10C07 		add	r7, r7, #12
 398 0020 BD46     		mov	sp, r7
 399 0022 80BC     		pop	{r7}
 400 0024 7047     		bx	lr
 401              		.cfi_endproc
 402              	.LFE8:
 403              		.size	UART_SoilMoisture_Decagon_ReadRxStatus, .-UART_SoilMoisture_Decagon_ReadRxStatus
 404 0026 00BF     		.section	.text.UART_SoilMoisture_Decagon_GetChar,"ax",%progbits
 405              		.align	2
 406              		.global	UART_SoilMoisture_Decagon_GetChar
 407              		.thumb
 408              		.thumb_func
 409              		.type	UART_SoilMoisture_Decagon_GetChar, %function
 410              	UART_SoilMoisture_Decagon_GetChar:
 411              	.LFB9:
 525:.\Generated_Source\PSoC5/UART_SoilMoisture_Decagon.c **** 
 526:.\Generated_Source\PSoC5/UART_SoilMoisture_Decagon.c **** 
 527:.\Generated_Source\PSoC5/UART_SoilMoisture_Decagon.c ****     /*******************************************************************************
 528:.\Generated_Source\PSoC5/UART_SoilMoisture_Decagon.c ****     * Function Name: UART_SoilMoisture_Decagon_GetChar
 529:.\Generated_Source\PSoC5/UART_SoilMoisture_Decagon.c ****     ********************************************************************************
 530:.\Generated_Source\PSoC5/UART_SoilMoisture_Decagon.c ****     *
 531:.\Generated_Source\PSoC5/UART_SoilMoisture_Decagon.c ****     * Summary:
 532:.\Generated_Source\PSoC5/UART_SoilMoisture_Decagon.c ****     *  Reads UART RX buffer immediately, if data is not available or an error
 533:.\Generated_Source\PSoC5/UART_SoilMoisture_Decagon.c ****     *  condition exists, zero is returned; otherwise, character is read and
 534:.\Generated_Source\PSoC5/UART_SoilMoisture_Decagon.c ****     *  returned.
 535:.\Generated_Source\PSoC5/UART_SoilMoisture_Decagon.c ****     *
 536:.\Generated_Source\PSoC5/UART_SoilMoisture_Decagon.c ****     * Parameters:
 537:.\Generated_Source\PSoC5/UART_SoilMoisture_Decagon.c ****     *  None.
 538:.\Generated_Source\PSoC5/UART_SoilMoisture_Decagon.c ****     *
 539:.\Generated_Source\PSoC5/UART_SoilMoisture_Decagon.c ****     * Return:
 540:.\Generated_Source\PSoC5/UART_SoilMoisture_Decagon.c ****     *  Character read from UART RX buffer. ASCII characters from 1 to 255 are valid.
 541:.\Generated_Source\PSoC5/UART_SoilMoisture_Decagon.c ****     *  A returned zero signifies an error condition or no data available.
 542:.\Generated_Source\PSoC5/UART_SoilMoisture_Decagon.c ****     *
 543:.\Generated_Source\PSoC5/UART_SoilMoisture_Decagon.c ****     * Global Variables:
 544:.\Generated_Source\PSoC5/UART_SoilMoisture_Decagon.c ****     *  UART_SoilMoisture_Decagon_rxBuffer - RAM buffer pointer for save received data.
 545:.\Generated_Source\PSoC5/UART_SoilMoisture_Decagon.c ****     *  UART_SoilMoisture_Decagon_rxBufferWrite - cyclic index for write to rxBuffer,
 546:.\Generated_Source\PSoC5/UART_SoilMoisture_Decagon.c ****     *     checked to identify new data.
 547:.\Generated_Source\PSoC5/UART_SoilMoisture_Decagon.c ****     *  UART_SoilMoisture_Decagon_rxBufferRead - cyclic index for read from rxBuffer,
 548:.\Generated_Source\PSoC5/UART_SoilMoisture_Decagon.c ****     *     incremented after each byte has been read from buffer.
 549:.\Generated_Source\PSoC5/UART_SoilMoisture_Decagon.c ****     *  UART_SoilMoisture_Decagon_rxBufferLoopDetect - creared if loop condition was detected
 550:.\Generated_Source\PSoC5/UART_SoilMoisture_Decagon.c ****     *     in RX ISR.
 551:.\Generated_Source\PSoC5/UART_SoilMoisture_Decagon.c ****     *
 552:.\Generated_Source\PSoC5/UART_SoilMoisture_Decagon.c ****     * Reentrant:
 553:.\Generated_Source\PSoC5/UART_SoilMoisture_Decagon.c ****     *  No.
 554:.\Generated_Source\PSoC5/UART_SoilMoisture_Decagon.c ****     *
 555:.\Generated_Source\PSoC5/UART_SoilMoisture_Decagon.c ****     *******************************************************************************/
 556:.\Generated_Source\PSoC5/UART_SoilMoisture_Decagon.c ****     uint8 UART_SoilMoisture_Decagon_GetChar(void) 
 557:.\Generated_Source\PSoC5/UART_SoilMoisture_Decagon.c ****     {
 412              		.loc 1 557 0
ARM GAS  C:\Users\hozhen\AppData\Local\Temp\ccp4Cpos.s 			page 18


 413              		.cfi_startproc
 414              		@ args = 0, pretend = 0, frame = 8
 415              		@ frame_needed = 1, uses_anonymous_args = 0
 416              		@ link register save eliminated.
 417 0000 80B4     		push	{r7}
 418              	.LCFI24:
 419              		.cfi_def_cfa_offset 4
 420              		.cfi_offset 7, -4
 421 0002 83B0     		sub	sp, sp, #12
 422              	.LCFI25:
 423              		.cfi_def_cfa_offset 16
 424 0004 00AF     		add	r7, sp, #0
 425              	.LCFI26:
 426              		.cfi_def_cfa_register 7
 558:.\Generated_Source\PSoC5/UART_SoilMoisture_Decagon.c ****         uint8 rxData = 0u;
 427              		.loc 1 558 0
 428 0006 4FF00003 		mov	r3, #0
 429 000a FB71     		strb	r3, [r7, #7]
 559:.\Generated_Source\PSoC5/UART_SoilMoisture_Decagon.c ****         uint8 rxStatus;
 560:.\Generated_Source\PSoC5/UART_SoilMoisture_Decagon.c **** 
 561:.\Generated_Source\PSoC5/UART_SoilMoisture_Decagon.c ****         #if(UART_SoilMoisture_Decagon_RXBUFFERSIZE > UART_SoilMoisture_Decagon_FIFO_LENGTH)
 562:.\Generated_Source\PSoC5/UART_SoilMoisture_Decagon.c ****             uint8 loc_rxBufferRead;
 563:.\Generated_Source\PSoC5/UART_SoilMoisture_Decagon.c ****             uint8 loc_rxBufferWrite;
 564:.\Generated_Source\PSoC5/UART_SoilMoisture_Decagon.c ****             /* Protect variables that could change on interrupt. */
 565:.\Generated_Source\PSoC5/UART_SoilMoisture_Decagon.c ****             /* Disable Rx interrupt. */
 566:.\Generated_Source\PSoC5/UART_SoilMoisture_Decagon.c ****             #if(UART_SoilMoisture_Decagon_RX_INTERRUPT_ENABLED)
 567:.\Generated_Source\PSoC5/UART_SoilMoisture_Decagon.c ****                 UART_SoilMoisture_Decagon_DisableRxInt();
 568:.\Generated_Source\PSoC5/UART_SoilMoisture_Decagon.c ****             #endif /* UART_SoilMoisture_Decagon_RX_INTERRUPT_ENABLED */
 569:.\Generated_Source\PSoC5/UART_SoilMoisture_Decagon.c ****             loc_rxBufferRead = UART_SoilMoisture_Decagon_rxBufferRead;
 570:.\Generated_Source\PSoC5/UART_SoilMoisture_Decagon.c ****             loc_rxBufferWrite = UART_SoilMoisture_Decagon_rxBufferWrite;
 571:.\Generated_Source\PSoC5/UART_SoilMoisture_Decagon.c **** 
 572:.\Generated_Source\PSoC5/UART_SoilMoisture_Decagon.c ****             if( (UART_SoilMoisture_Decagon_rxBufferLoopDetect != 0u) || (loc_rxBufferRead != loc_rx
 573:.\Generated_Source\PSoC5/UART_SoilMoisture_Decagon.c ****             {
 574:.\Generated_Source\PSoC5/UART_SoilMoisture_Decagon.c ****                 rxData = UART_SoilMoisture_Decagon_rxBuffer[loc_rxBufferRead];
 575:.\Generated_Source\PSoC5/UART_SoilMoisture_Decagon.c ****                 loc_rxBufferRead++;
 576:.\Generated_Source\PSoC5/UART_SoilMoisture_Decagon.c ****                 if(loc_rxBufferRead >= UART_SoilMoisture_Decagon_RXBUFFERSIZE)
 577:.\Generated_Source\PSoC5/UART_SoilMoisture_Decagon.c ****                 {
 578:.\Generated_Source\PSoC5/UART_SoilMoisture_Decagon.c ****                     loc_rxBufferRead = 0u;
 579:.\Generated_Source\PSoC5/UART_SoilMoisture_Decagon.c ****                 }
 580:.\Generated_Source\PSoC5/UART_SoilMoisture_Decagon.c ****                 /* Update the real pointer */
 581:.\Generated_Source\PSoC5/UART_SoilMoisture_Decagon.c ****                 UART_SoilMoisture_Decagon_rxBufferRead = loc_rxBufferRead;
 582:.\Generated_Source\PSoC5/UART_SoilMoisture_Decagon.c **** 
 583:.\Generated_Source\PSoC5/UART_SoilMoisture_Decagon.c ****                 if(UART_SoilMoisture_Decagon_rxBufferLoopDetect > 0u )
 584:.\Generated_Source\PSoC5/UART_SoilMoisture_Decagon.c ****                 {
 585:.\Generated_Source\PSoC5/UART_SoilMoisture_Decagon.c ****                     UART_SoilMoisture_Decagon_rxBufferLoopDetect = 0u;
 586:.\Generated_Source\PSoC5/UART_SoilMoisture_Decagon.c ****                     #if( (UART_SoilMoisture_Decagon_RX_INTERRUPT_ENABLED) && (UART_SoilMoisture_Dec
 587:.\Generated_Source\PSoC5/UART_SoilMoisture_Decagon.c ****                         /* When Hardware Flow Control selected - return RX mask */
 588:.\Generated_Source\PSoC5/UART_SoilMoisture_Decagon.c ****                         #if( UART_SoilMoisture_Decagon_HD_ENABLED )
 589:.\Generated_Source\PSoC5/UART_SoilMoisture_Decagon.c ****                             if((UART_SoilMoisture_Decagon_CONTROL_REG & UART_SoilMoisture_Decagon_C
 590:.\Generated_Source\PSoC5/UART_SoilMoisture_Decagon.c ****                             {   /* In Half duplex mode return RX mask only if
 591:.\Generated_Source\PSoC5/UART_SoilMoisture_Decagon.c ****                                 *  RX configuration set, otherwise
 592:.\Generated_Source\PSoC5/UART_SoilMoisture_Decagon.c ****                                 *  mask will be returned in LoadRxConfig() API.
 593:.\Generated_Source\PSoC5/UART_SoilMoisture_Decagon.c ****                                 */
 594:.\Generated_Source\PSoC5/UART_SoilMoisture_Decagon.c ****                                 UART_SoilMoisture_Decagon_RXSTATUS_MASK_REG  |= UART_SoilMoisture_D
 595:.\Generated_Source\PSoC5/UART_SoilMoisture_Decagon.c ****                             }
 596:.\Generated_Source\PSoC5/UART_SoilMoisture_Decagon.c ****                         #else
 597:.\Generated_Source\PSoC5/UART_SoilMoisture_Decagon.c ****                             UART_SoilMoisture_Decagon_RXSTATUS_MASK_REG  |= UART_SoilMoisture_Decag
ARM GAS  C:\Users\hozhen\AppData\Local\Temp\ccp4Cpos.s 			page 19


 598:.\Generated_Source\PSoC5/UART_SoilMoisture_Decagon.c ****                         #endif /* end UART_SoilMoisture_Decagon_HD_ENABLED */
 599:.\Generated_Source\PSoC5/UART_SoilMoisture_Decagon.c ****                     #endif /* UART_SoilMoisture_Decagon_RX_INTERRUPT_ENABLED and Hardware flow cont
 600:.\Generated_Source\PSoC5/UART_SoilMoisture_Decagon.c ****                 }
 601:.\Generated_Source\PSoC5/UART_SoilMoisture_Decagon.c **** 
 602:.\Generated_Source\PSoC5/UART_SoilMoisture_Decagon.c ****             }
 603:.\Generated_Source\PSoC5/UART_SoilMoisture_Decagon.c ****             else
 604:.\Generated_Source\PSoC5/UART_SoilMoisture_Decagon.c ****             {   rxStatus = UART_SoilMoisture_Decagon_RXSTATUS_REG;
 605:.\Generated_Source\PSoC5/UART_SoilMoisture_Decagon.c ****                 if((rxStatus & UART_SoilMoisture_Decagon_RX_STS_FIFO_NOTEMPTY) != 0u)
 606:.\Generated_Source\PSoC5/UART_SoilMoisture_Decagon.c ****                 {   /* Read received data from FIFO*/
 607:.\Generated_Source\PSoC5/UART_SoilMoisture_Decagon.c ****                     rxData = UART_SoilMoisture_Decagon_RXDATA_REG;
 608:.\Generated_Source\PSoC5/UART_SoilMoisture_Decagon.c ****                     /*Check status on error*/
 609:.\Generated_Source\PSoC5/UART_SoilMoisture_Decagon.c ****                     if((rxStatus & (UART_SoilMoisture_Decagon_RX_STS_BREAK | UART_SoilMoisture_Deca
 610:.\Generated_Source\PSoC5/UART_SoilMoisture_Decagon.c ****                                    UART_SoilMoisture_Decagon_RX_STS_STOP_ERROR | UART_SoilMoisture_
 611:.\Generated_Source\PSoC5/UART_SoilMoisture_Decagon.c ****                     {
 612:.\Generated_Source\PSoC5/UART_SoilMoisture_Decagon.c ****                         rxData = 0u;
 613:.\Generated_Source\PSoC5/UART_SoilMoisture_Decagon.c ****                     }
 614:.\Generated_Source\PSoC5/UART_SoilMoisture_Decagon.c ****                 }
 615:.\Generated_Source\PSoC5/UART_SoilMoisture_Decagon.c ****             }
 616:.\Generated_Source\PSoC5/UART_SoilMoisture_Decagon.c **** 
 617:.\Generated_Source\PSoC5/UART_SoilMoisture_Decagon.c ****             /* Enable Rx interrupt. */
 618:.\Generated_Source\PSoC5/UART_SoilMoisture_Decagon.c ****             #if(UART_SoilMoisture_Decagon_RX_INTERRUPT_ENABLED)
 619:.\Generated_Source\PSoC5/UART_SoilMoisture_Decagon.c ****                 UART_SoilMoisture_Decagon_EnableRxInt();
 620:.\Generated_Source\PSoC5/UART_SoilMoisture_Decagon.c ****             #endif /* UART_SoilMoisture_Decagon_RX_INTERRUPT_ENABLED */
 621:.\Generated_Source\PSoC5/UART_SoilMoisture_Decagon.c **** 
 622:.\Generated_Source\PSoC5/UART_SoilMoisture_Decagon.c ****         #else /* UART_SoilMoisture_Decagon_RXBUFFERSIZE > UART_SoilMoisture_Decagon_FIFO_LENGTH */
 623:.\Generated_Source\PSoC5/UART_SoilMoisture_Decagon.c **** 
 624:.\Generated_Source\PSoC5/UART_SoilMoisture_Decagon.c ****             rxStatus =UART_SoilMoisture_Decagon_RXSTATUS_REG;
 430              		.loc 1 624 0
 431 000c 46F26243 		movw	r3, #25698
 432 0010 C4F20003 		movt	r3, 16384
 433 0014 1B78     		ldrb	r3, [r3, #0]
 434 0016 BB71     		strb	r3, [r7, #6]
 625:.\Generated_Source\PSoC5/UART_SoilMoisture_Decagon.c ****             if((rxStatus & UART_SoilMoisture_Decagon_RX_STS_FIFO_NOTEMPTY) != 0u)
 435              		.loc 1 625 0
 436 0018 BB79     		ldrb	r3, [r7, #6]	@ zero_extendqisi2
 437 001a 03F02003 		and	r3, r3, #32
 438 001e 002B     		cmp	r3, #0
 439 0020 0DD0     		beq	.L15
 626:.\Generated_Source\PSoC5/UART_SoilMoisture_Decagon.c ****             {   /* Read received data from FIFO*/
 627:.\Generated_Source\PSoC5/UART_SoilMoisture_Decagon.c ****                 rxData = UART_SoilMoisture_Decagon_RXDATA_REG;
 440              		.loc 1 627 0
 441 0022 46F24243 		movw	r3, #25666
 442 0026 C4F20003 		movt	r3, 16384
 443 002a 1B78     		ldrb	r3, [r3, #0]
 444 002c FB71     		strb	r3, [r7, #7]
 628:.\Generated_Source\PSoC5/UART_SoilMoisture_Decagon.c ****                 /*Check status on error*/
 629:.\Generated_Source\PSoC5/UART_SoilMoisture_Decagon.c ****                 if((rxStatus & (UART_SoilMoisture_Decagon_RX_STS_BREAK | UART_SoilMoisture_Decagon_
 630:.\Generated_Source\PSoC5/UART_SoilMoisture_Decagon.c ****                                UART_SoilMoisture_Decagon_RX_STS_STOP_ERROR | UART_SoilMoisture_Deca
 445              		.loc 1 630 0
 446 002e BB79     		ldrb	r3, [r7, #6]	@ zero_extendqisi2
 447 0030 03F01E03 		and	r3, r3, #30
 629:.\Generated_Source\PSoC5/UART_SoilMoisture_Decagon.c ****                 if((rxStatus & (UART_SoilMoisture_Decagon_RX_STS_BREAK | UART_SoilMoisture_Decagon_
 448              		.loc 1 629 0
 449 0034 002B     		cmp	r3, #0
 450 0036 02D0     		beq	.L15
 631:.\Generated_Source\PSoC5/UART_SoilMoisture_Decagon.c ****                 {
 632:.\Generated_Source\PSoC5/UART_SoilMoisture_Decagon.c ****                     rxData = 0u;
ARM GAS  C:\Users\hozhen\AppData\Local\Temp\ccp4Cpos.s 			page 20


 451              		.loc 1 632 0
 452 0038 4FF00003 		mov	r3, #0
 453 003c FB71     		strb	r3, [r7, #7]
 454              	.L15:
 633:.\Generated_Source\PSoC5/UART_SoilMoisture_Decagon.c ****                 }
 634:.\Generated_Source\PSoC5/UART_SoilMoisture_Decagon.c ****             }
 635:.\Generated_Source\PSoC5/UART_SoilMoisture_Decagon.c ****         #endif /* UART_SoilMoisture_Decagon_RXBUFFERSIZE > UART_SoilMoisture_Decagon_FIFO_LENGTH */
 636:.\Generated_Source\PSoC5/UART_SoilMoisture_Decagon.c **** 
 637:.\Generated_Source\PSoC5/UART_SoilMoisture_Decagon.c ****         return(rxData);
 455              		.loc 1 637 0
 456 003e FB79     		ldrb	r3, [r7, #7]	@ zero_extendqisi2
 638:.\Generated_Source\PSoC5/UART_SoilMoisture_Decagon.c ****     }
 457              		.loc 1 638 0
 458 0040 1846     		mov	r0, r3
 459 0042 07F10C07 		add	r7, r7, #12
 460 0046 BD46     		mov	sp, r7
 461 0048 80BC     		pop	{r7}
 462 004a 7047     		bx	lr
 463              		.cfi_endproc
 464              	.LFE9:
 465              		.size	UART_SoilMoisture_Decagon_GetChar, .-UART_SoilMoisture_Decagon_GetChar
 466              		.section	.text.UART_SoilMoisture_Decagon_GetByte,"ax",%progbits
 467              		.align	2
 468              		.global	UART_SoilMoisture_Decagon_GetByte
 469              		.thumb
 470              		.thumb_func
 471              		.type	UART_SoilMoisture_Decagon_GetByte, %function
 472              	UART_SoilMoisture_Decagon_GetByte:
 473              	.LFB10:
 639:.\Generated_Source\PSoC5/UART_SoilMoisture_Decagon.c **** 
 640:.\Generated_Source\PSoC5/UART_SoilMoisture_Decagon.c **** 
 641:.\Generated_Source\PSoC5/UART_SoilMoisture_Decagon.c ****     /*******************************************************************************
 642:.\Generated_Source\PSoC5/UART_SoilMoisture_Decagon.c ****     * Function Name: UART_SoilMoisture_Decagon_GetByte
 643:.\Generated_Source\PSoC5/UART_SoilMoisture_Decagon.c ****     ********************************************************************************
 644:.\Generated_Source\PSoC5/UART_SoilMoisture_Decagon.c ****     *
 645:.\Generated_Source\PSoC5/UART_SoilMoisture_Decagon.c ****     * Summary:
 646:.\Generated_Source\PSoC5/UART_SoilMoisture_Decagon.c ****     *  Grab the next available byte of data from the recieve FIFO
 647:.\Generated_Source\PSoC5/UART_SoilMoisture_Decagon.c ****     *
 648:.\Generated_Source\PSoC5/UART_SoilMoisture_Decagon.c ****     * Parameters:
 649:.\Generated_Source\PSoC5/UART_SoilMoisture_Decagon.c ****     *  None.
 650:.\Generated_Source\PSoC5/UART_SoilMoisture_Decagon.c ****     *
 651:.\Generated_Source\PSoC5/UART_SoilMoisture_Decagon.c ****     * Return:
 652:.\Generated_Source\PSoC5/UART_SoilMoisture_Decagon.c ****     *  MSB contains Status Register and LSB contains UART RX data
 653:.\Generated_Source\PSoC5/UART_SoilMoisture_Decagon.c ****     *
 654:.\Generated_Source\PSoC5/UART_SoilMoisture_Decagon.c ****     * Reentrant:
 655:.\Generated_Source\PSoC5/UART_SoilMoisture_Decagon.c ****     *  No.
 656:.\Generated_Source\PSoC5/UART_SoilMoisture_Decagon.c ****     *
 657:.\Generated_Source\PSoC5/UART_SoilMoisture_Decagon.c ****     *******************************************************************************/
 658:.\Generated_Source\PSoC5/UART_SoilMoisture_Decagon.c ****     uint16 UART_SoilMoisture_Decagon_GetByte(void) 
 659:.\Generated_Source\PSoC5/UART_SoilMoisture_Decagon.c ****     {
 474              		.loc 1 659 0
 475              		.cfi_startproc
 476              		@ args = 0, pretend = 0, frame = 0
 477              		@ frame_needed = 1, uses_anonymous_args = 0
 478 0000 98B5     		push	{r3, r4, r7, lr}
 479              	.LCFI27:
 480              		.cfi_def_cfa_offset 16
ARM GAS  C:\Users\hozhen\AppData\Local\Temp\ccp4Cpos.s 			page 21


 481              		.cfi_offset 3, -16
 482              		.cfi_offset 4, -12
 483              		.cfi_offset 7, -8
 484              		.cfi_offset 14, -4
 485 0002 00AF     		add	r7, sp, #0
 486              	.LCFI28:
 487              		.cfi_def_cfa_register 7
 660:.\Generated_Source\PSoC5/UART_SoilMoisture_Decagon.c ****         return ( ((uint16)UART_SoilMoisture_Decagon_ReadRxStatus() << 8u) | UART_SoilMoisture_Decag
 488              		.loc 1 660 0
 489 0004 FFF7FEFF 		bl	UART_SoilMoisture_Decagon_ReadRxStatus
 490 0008 0346     		mov	r3, r0
 491 000a 4FEA0323 		lsl	r3, r3, #8
 492 000e 9CB2     		uxth	r4, r3
 493 0010 FFF7FEFF 		bl	UART_SoilMoisture_Decagon_ReadRxData
 494 0014 0346     		mov	r3, r0
 495 0016 2246     		mov	r2, r4	@ movhi
 496 0018 1343     		orrs	r3, r3, r2
 497 001a 9BB2     		uxth	r3, r3
 498 001c 9BB2     		uxth	r3, r3
 661:.\Generated_Source\PSoC5/UART_SoilMoisture_Decagon.c ****     }
 499              		.loc 1 661 0
 500 001e 1846     		mov	r0, r3
 501 0020 98BD     		pop	{r3, r4, r7, pc}
 502              		.cfi_endproc
 503              	.LFE10:
 504              		.size	UART_SoilMoisture_Decagon_GetByte, .-UART_SoilMoisture_Decagon_GetByte
 505 0022 00BF     		.section	.text.UART_SoilMoisture_Decagon_GetRxBufferSize,"ax",%progbits
 506              		.align	2
 507              		.global	UART_SoilMoisture_Decagon_GetRxBufferSize
 508              		.thumb
 509              		.thumb_func
 510              		.type	UART_SoilMoisture_Decagon_GetRxBufferSize, %function
 511              	UART_SoilMoisture_Decagon_GetRxBufferSize:
 512              	.LFB11:
 662:.\Generated_Source\PSoC5/UART_SoilMoisture_Decagon.c **** 
 663:.\Generated_Source\PSoC5/UART_SoilMoisture_Decagon.c **** 
 664:.\Generated_Source\PSoC5/UART_SoilMoisture_Decagon.c ****     /*******************************************************************************
 665:.\Generated_Source\PSoC5/UART_SoilMoisture_Decagon.c ****     * Function Name: UART_SoilMoisture_Decagon_GetRxBufferSize
 666:.\Generated_Source\PSoC5/UART_SoilMoisture_Decagon.c ****     ********************************************************************************
 667:.\Generated_Source\PSoC5/UART_SoilMoisture_Decagon.c ****     *
 668:.\Generated_Source\PSoC5/UART_SoilMoisture_Decagon.c ****     * Summary:
 669:.\Generated_Source\PSoC5/UART_SoilMoisture_Decagon.c ****     *  Determine the amount of bytes left in the RX buffer and return the count in
 670:.\Generated_Source\PSoC5/UART_SoilMoisture_Decagon.c ****     *  bytes
 671:.\Generated_Source\PSoC5/UART_SoilMoisture_Decagon.c ****     *
 672:.\Generated_Source\PSoC5/UART_SoilMoisture_Decagon.c ****     * Parameters:
 673:.\Generated_Source\PSoC5/UART_SoilMoisture_Decagon.c ****     *  None.
 674:.\Generated_Source\PSoC5/UART_SoilMoisture_Decagon.c ****     *
 675:.\Generated_Source\PSoC5/UART_SoilMoisture_Decagon.c ****     * Return:
 676:.\Generated_Source\PSoC5/UART_SoilMoisture_Decagon.c ****     *  uint8: Integer count of the number of bytes left
 677:.\Generated_Source\PSoC5/UART_SoilMoisture_Decagon.c ****     *  in the RX buffer
 678:.\Generated_Source\PSoC5/UART_SoilMoisture_Decagon.c ****     *
 679:.\Generated_Source\PSoC5/UART_SoilMoisture_Decagon.c ****     * Global Variables:
 680:.\Generated_Source\PSoC5/UART_SoilMoisture_Decagon.c ****     *  UART_SoilMoisture_Decagon_rxBufferWrite - used to calculate left bytes.
 681:.\Generated_Source\PSoC5/UART_SoilMoisture_Decagon.c ****     *  UART_SoilMoisture_Decagon_rxBufferRead - used to calculate left bytes.
 682:.\Generated_Source\PSoC5/UART_SoilMoisture_Decagon.c ****     *  UART_SoilMoisture_Decagon_rxBufferLoopDetect - checked to decide left bytes amount.
 683:.\Generated_Source\PSoC5/UART_SoilMoisture_Decagon.c ****     *
 684:.\Generated_Source\PSoC5/UART_SoilMoisture_Decagon.c ****     * Reentrant:
ARM GAS  C:\Users\hozhen\AppData\Local\Temp\ccp4Cpos.s 			page 22


 685:.\Generated_Source\PSoC5/UART_SoilMoisture_Decagon.c ****     *  No.
 686:.\Generated_Source\PSoC5/UART_SoilMoisture_Decagon.c ****     *
 687:.\Generated_Source\PSoC5/UART_SoilMoisture_Decagon.c ****     * Theory:
 688:.\Generated_Source\PSoC5/UART_SoilMoisture_Decagon.c ****     *  Allows the user to find out how full the RX Buffer is.
 689:.\Generated_Source\PSoC5/UART_SoilMoisture_Decagon.c ****     *
 690:.\Generated_Source\PSoC5/UART_SoilMoisture_Decagon.c ****     *******************************************************************************/
 691:.\Generated_Source\PSoC5/UART_SoilMoisture_Decagon.c ****     uint8 UART_SoilMoisture_Decagon_GetRxBufferSize(void)
 692:.\Generated_Source\PSoC5/UART_SoilMoisture_Decagon.c ****                                                             
 693:.\Generated_Source\PSoC5/UART_SoilMoisture_Decagon.c ****     {
 513              		.loc 1 693 0
 514              		.cfi_startproc
 515              		@ args = 0, pretend = 0, frame = 8
 516              		@ frame_needed = 1, uses_anonymous_args = 0
 517              		@ link register save eliminated.
 518 0000 80B4     		push	{r7}
 519              	.LCFI29:
 520              		.cfi_def_cfa_offset 4
 521              		.cfi_offset 7, -4
 522 0002 83B0     		sub	sp, sp, #12
 523              	.LCFI30:
 524              		.cfi_def_cfa_offset 16
 525 0004 00AF     		add	r7, sp, #0
 526              	.LCFI31:
 527              		.cfi_def_cfa_register 7
 694:.\Generated_Source\PSoC5/UART_SoilMoisture_Decagon.c ****         uint8 size;
 695:.\Generated_Source\PSoC5/UART_SoilMoisture_Decagon.c **** 
 696:.\Generated_Source\PSoC5/UART_SoilMoisture_Decagon.c ****         #if(UART_SoilMoisture_Decagon_RXBUFFERSIZE > UART_SoilMoisture_Decagon_FIFO_LENGTH)
 697:.\Generated_Source\PSoC5/UART_SoilMoisture_Decagon.c **** 
 698:.\Generated_Source\PSoC5/UART_SoilMoisture_Decagon.c ****             /* Disable Rx interrupt. */
 699:.\Generated_Source\PSoC5/UART_SoilMoisture_Decagon.c ****             /* Protect variables that could change on interrupt. */
 700:.\Generated_Source\PSoC5/UART_SoilMoisture_Decagon.c ****             #if(UART_SoilMoisture_Decagon_RX_INTERRUPT_ENABLED)
 701:.\Generated_Source\PSoC5/UART_SoilMoisture_Decagon.c ****                 UART_SoilMoisture_Decagon_DisableRxInt();
 702:.\Generated_Source\PSoC5/UART_SoilMoisture_Decagon.c ****             #endif /* UART_SoilMoisture_Decagon_RX_INTERRUPT_ENABLED */
 703:.\Generated_Source\PSoC5/UART_SoilMoisture_Decagon.c **** 
 704:.\Generated_Source\PSoC5/UART_SoilMoisture_Decagon.c ****             if(UART_SoilMoisture_Decagon_rxBufferRead == UART_SoilMoisture_Decagon_rxBufferWrite)
 705:.\Generated_Source\PSoC5/UART_SoilMoisture_Decagon.c ****             {
 706:.\Generated_Source\PSoC5/UART_SoilMoisture_Decagon.c ****                 if(UART_SoilMoisture_Decagon_rxBufferLoopDetect > 0u)
 707:.\Generated_Source\PSoC5/UART_SoilMoisture_Decagon.c ****                 {
 708:.\Generated_Source\PSoC5/UART_SoilMoisture_Decagon.c ****                     size = UART_SoilMoisture_Decagon_RXBUFFERSIZE;
 709:.\Generated_Source\PSoC5/UART_SoilMoisture_Decagon.c ****                 }
 710:.\Generated_Source\PSoC5/UART_SoilMoisture_Decagon.c ****                 else
 711:.\Generated_Source\PSoC5/UART_SoilMoisture_Decagon.c ****                 {
 712:.\Generated_Source\PSoC5/UART_SoilMoisture_Decagon.c ****                     size = 0u;
 713:.\Generated_Source\PSoC5/UART_SoilMoisture_Decagon.c ****                 }
 714:.\Generated_Source\PSoC5/UART_SoilMoisture_Decagon.c ****             }
 715:.\Generated_Source\PSoC5/UART_SoilMoisture_Decagon.c ****             else if(UART_SoilMoisture_Decagon_rxBufferRead < UART_SoilMoisture_Decagon_rxBufferWrit
 716:.\Generated_Source\PSoC5/UART_SoilMoisture_Decagon.c ****             {
 717:.\Generated_Source\PSoC5/UART_SoilMoisture_Decagon.c ****                 size = (UART_SoilMoisture_Decagon_rxBufferWrite - UART_SoilMoisture_Decagon_rxBuffe
 718:.\Generated_Source\PSoC5/UART_SoilMoisture_Decagon.c ****             }
 719:.\Generated_Source\PSoC5/UART_SoilMoisture_Decagon.c ****             else
 720:.\Generated_Source\PSoC5/UART_SoilMoisture_Decagon.c ****             {
 721:.\Generated_Source\PSoC5/UART_SoilMoisture_Decagon.c ****                 size = (UART_SoilMoisture_Decagon_RXBUFFERSIZE - UART_SoilMoisture_Decagon_rxBuffer
 722:.\Generated_Source\PSoC5/UART_SoilMoisture_Decagon.c ****             }
 723:.\Generated_Source\PSoC5/UART_SoilMoisture_Decagon.c **** 
 724:.\Generated_Source\PSoC5/UART_SoilMoisture_Decagon.c ****             /* Enable Rx interrupt. */
 725:.\Generated_Source\PSoC5/UART_SoilMoisture_Decagon.c ****             #if(UART_SoilMoisture_Decagon_RX_INTERRUPT_ENABLED)
 726:.\Generated_Source\PSoC5/UART_SoilMoisture_Decagon.c ****                 UART_SoilMoisture_Decagon_EnableRxInt();
ARM GAS  C:\Users\hozhen\AppData\Local\Temp\ccp4Cpos.s 			page 23


 727:.\Generated_Source\PSoC5/UART_SoilMoisture_Decagon.c ****             #endif /* End UART_SoilMoisture_Decagon_RX_INTERRUPT_ENABLED */
 728:.\Generated_Source\PSoC5/UART_SoilMoisture_Decagon.c **** 
 729:.\Generated_Source\PSoC5/UART_SoilMoisture_Decagon.c ****         #else /* UART_SoilMoisture_Decagon_RXBUFFERSIZE > UART_SoilMoisture_Decagon_FIFO_LENGTH */
 730:.\Generated_Source\PSoC5/UART_SoilMoisture_Decagon.c **** 
 731:.\Generated_Source\PSoC5/UART_SoilMoisture_Decagon.c ****             /* We can only know if there is data in the fifo. */
 732:.\Generated_Source\PSoC5/UART_SoilMoisture_Decagon.c ****             size = ((UART_SoilMoisture_Decagon_RXSTATUS_REG & UART_SoilMoisture_Decagon_RX_STS_FIFO
 528              		.loc 1 732 0
 529 0006 46F26243 		movw	r3, #25698
 530 000a C4F20003 		movt	r3, 16384
 531 000e 1B78     		ldrb	r3, [r3, #0]
 532 0010 DBB2     		uxtb	r3, r3
 533 0012 03F02003 		and	r3, r3, #32
 534 0016 002B     		cmp	r3, #0
 535 0018 02D0     		beq	.L20
 536              		.loc 1 732 0 is_stmt 0 discriminator 1
 537 001a 4FF00103 		mov	r3, #1
 538 001e 01E0     		b	.L21
 539              	.L20:
 540              		.loc 1 732 0 discriminator 2
 541 0020 4FF00003 		mov	r3, #0
 542              	.L21:
 543              		.loc 1 732 0 discriminator 3
 544 0024 FB71     		strb	r3, [r7, #7]
 733:.\Generated_Source\PSoC5/UART_SoilMoisture_Decagon.c **** 
 734:.\Generated_Source\PSoC5/UART_SoilMoisture_Decagon.c ****         #endif /* End UART_SoilMoisture_Decagon_RXBUFFERSIZE > UART_SoilMoisture_Decagon_FIFO_LENGT
 735:.\Generated_Source\PSoC5/UART_SoilMoisture_Decagon.c **** 
 736:.\Generated_Source\PSoC5/UART_SoilMoisture_Decagon.c ****         return(size);
 545              		.loc 1 736 0 is_stmt 1 discriminator 3
 546 0026 FB79     		ldrb	r3, [r7, #7]	@ zero_extendqisi2
 737:.\Generated_Source\PSoC5/UART_SoilMoisture_Decagon.c ****     }
 547              		.loc 1 737 0 discriminator 3
 548 0028 1846     		mov	r0, r3
 549 002a 07F10C07 		add	r7, r7, #12
 550 002e BD46     		mov	sp, r7
 551 0030 80BC     		pop	{r7}
 552 0032 7047     		bx	lr
 553              		.cfi_endproc
 554              	.LFE11:
 555              		.size	UART_SoilMoisture_Decagon_GetRxBufferSize, .-UART_SoilMoisture_Decagon_GetRxBufferSize
 556              		.section	.text.UART_SoilMoisture_Decagon_ClearRxBuffer,"ax",%progbits
 557              		.align	2
 558              		.global	UART_SoilMoisture_Decagon_ClearRxBuffer
 559              		.thumb
 560              		.thumb_func
 561              		.type	UART_SoilMoisture_Decagon_ClearRxBuffer, %function
 562              	UART_SoilMoisture_Decagon_ClearRxBuffer:
 563              	.LFB12:
 738:.\Generated_Source\PSoC5/UART_SoilMoisture_Decagon.c **** 
 739:.\Generated_Source\PSoC5/UART_SoilMoisture_Decagon.c **** 
 740:.\Generated_Source\PSoC5/UART_SoilMoisture_Decagon.c ****     /*******************************************************************************
 741:.\Generated_Source\PSoC5/UART_SoilMoisture_Decagon.c ****     * Function Name: UART_SoilMoisture_Decagon_ClearRxBuffer
 742:.\Generated_Source\PSoC5/UART_SoilMoisture_Decagon.c ****     ********************************************************************************
 743:.\Generated_Source\PSoC5/UART_SoilMoisture_Decagon.c ****     *
 744:.\Generated_Source\PSoC5/UART_SoilMoisture_Decagon.c ****     * Summary:
 745:.\Generated_Source\PSoC5/UART_SoilMoisture_Decagon.c ****     *  Clears the RX RAM buffer by setting the read and write pointers both to zero.
 746:.\Generated_Source\PSoC5/UART_SoilMoisture_Decagon.c ****     *  Clears hardware RX FIFO.
 747:.\Generated_Source\PSoC5/UART_SoilMoisture_Decagon.c ****     *
ARM GAS  C:\Users\hozhen\AppData\Local\Temp\ccp4Cpos.s 			page 24


 748:.\Generated_Source\PSoC5/UART_SoilMoisture_Decagon.c ****     * Parameters:
 749:.\Generated_Source\PSoC5/UART_SoilMoisture_Decagon.c ****     *  None.
 750:.\Generated_Source\PSoC5/UART_SoilMoisture_Decagon.c ****     *
 751:.\Generated_Source\PSoC5/UART_SoilMoisture_Decagon.c ****     * Return:
 752:.\Generated_Source\PSoC5/UART_SoilMoisture_Decagon.c ****     *  None.
 753:.\Generated_Source\PSoC5/UART_SoilMoisture_Decagon.c ****     *
 754:.\Generated_Source\PSoC5/UART_SoilMoisture_Decagon.c ****     * Global Variables:
 755:.\Generated_Source\PSoC5/UART_SoilMoisture_Decagon.c ****     *  UART_SoilMoisture_Decagon_rxBufferWrite - cleared to zero.
 756:.\Generated_Source\PSoC5/UART_SoilMoisture_Decagon.c ****     *  UART_SoilMoisture_Decagon_rxBufferRead - cleared to zero.
 757:.\Generated_Source\PSoC5/UART_SoilMoisture_Decagon.c ****     *  UART_SoilMoisture_Decagon_rxBufferLoopDetect - cleared to zero.
 758:.\Generated_Source\PSoC5/UART_SoilMoisture_Decagon.c ****     *  UART_SoilMoisture_Decagon_rxBufferOverflow - cleared to zero.
 759:.\Generated_Source\PSoC5/UART_SoilMoisture_Decagon.c ****     *
 760:.\Generated_Source\PSoC5/UART_SoilMoisture_Decagon.c ****     * Reentrant:
 761:.\Generated_Source\PSoC5/UART_SoilMoisture_Decagon.c ****     *  No.
 762:.\Generated_Source\PSoC5/UART_SoilMoisture_Decagon.c ****     *
 763:.\Generated_Source\PSoC5/UART_SoilMoisture_Decagon.c ****     * Theory:
 764:.\Generated_Source\PSoC5/UART_SoilMoisture_Decagon.c ****     *  Setting the pointers to zero makes the system believe there is no data to
 765:.\Generated_Source\PSoC5/UART_SoilMoisture_Decagon.c ****     *  read and writing will resume at address 0 overwriting any data that may
 766:.\Generated_Source\PSoC5/UART_SoilMoisture_Decagon.c ****     *  have remained in the RAM.
 767:.\Generated_Source\PSoC5/UART_SoilMoisture_Decagon.c ****     *
 768:.\Generated_Source\PSoC5/UART_SoilMoisture_Decagon.c ****     * Side Effects:
 769:.\Generated_Source\PSoC5/UART_SoilMoisture_Decagon.c ****     *  Any received data not read from the RAM or FIFO buffer will be lost.
 770:.\Generated_Source\PSoC5/UART_SoilMoisture_Decagon.c ****     *******************************************************************************/
 771:.\Generated_Source\PSoC5/UART_SoilMoisture_Decagon.c ****     void UART_SoilMoisture_Decagon_ClearRxBuffer(void) 
 772:.\Generated_Source\PSoC5/UART_SoilMoisture_Decagon.c ****     {
 564              		.loc 1 772 0
 565              		.cfi_startproc
 566              		@ args = 0, pretend = 0, frame = 8
 567              		@ frame_needed = 1, uses_anonymous_args = 0
 568 0000 80B5     		push	{r7, lr}
 569              	.LCFI32:
 570              		.cfi_def_cfa_offset 8
 571              		.cfi_offset 7, -8
 572              		.cfi_offset 14, -4
 573 0002 82B0     		sub	sp, sp, #8
 574              	.LCFI33:
 575              		.cfi_def_cfa_offset 16
 576 0004 00AF     		add	r7, sp, #0
 577              	.LCFI34:
 578              		.cfi_def_cfa_register 7
 773:.\Generated_Source\PSoC5/UART_SoilMoisture_Decagon.c ****         uint8 enableInterrupts;
 774:.\Generated_Source\PSoC5/UART_SoilMoisture_Decagon.c **** 
 775:.\Generated_Source\PSoC5/UART_SoilMoisture_Decagon.c ****         /* clear the HW FIFO */
 776:.\Generated_Source\PSoC5/UART_SoilMoisture_Decagon.c ****         /* Enter critical section */
 777:.\Generated_Source\PSoC5/UART_SoilMoisture_Decagon.c ****         enableInterrupts = CyEnterCriticalSection();
 579              		.loc 1 777 0
 580 0006 FFF7FEFF 		bl	CyEnterCriticalSection
 581 000a 0346     		mov	r3, r0
 582 000c FB71     		strb	r3, [r7, #7]
 778:.\Generated_Source\PSoC5/UART_SoilMoisture_Decagon.c ****         UART_SoilMoisture_Decagon_RXDATA_AUX_CTL_REG |=  UART_SoilMoisture_Decagon_RX_FIFO_CLR;
 583              		.loc 1 778 0
 584 000e 46F29243 		movw	r3, #25746
 585 0012 C4F20003 		movt	r3, 16384
 586 0016 46F29242 		movw	r2, #25746
 587 001a C4F20002 		movt	r2, 16384
 588 001e 1278     		ldrb	r2, [r2, #0]
 589 0020 D2B2     		uxtb	r2, r2
ARM GAS  C:\Users\hozhen\AppData\Local\Temp\ccp4Cpos.s 			page 25


 590 0022 42F00102 		orr	r2, r2, #1
 591 0026 D2B2     		uxtb	r2, r2
 592 0028 1A70     		strb	r2, [r3, #0]
 779:.\Generated_Source\PSoC5/UART_SoilMoisture_Decagon.c ****         UART_SoilMoisture_Decagon_RXDATA_AUX_CTL_REG &= (uint8)~UART_SoilMoisture_Decagon_RX_FIFO_C
 593              		.loc 1 779 0
 594 002a 46F29243 		movw	r3, #25746
 595 002e C4F20003 		movt	r3, 16384
 596 0032 46F29242 		movw	r2, #25746
 597 0036 C4F20002 		movt	r2, 16384
 598 003a 1278     		ldrb	r2, [r2, #0]
 599 003c D2B2     		uxtb	r2, r2
 600 003e 22F00102 		bic	r2, r2, #1
 601 0042 D2B2     		uxtb	r2, r2
 602 0044 1A70     		strb	r2, [r3, #0]
 780:.\Generated_Source\PSoC5/UART_SoilMoisture_Decagon.c ****         /* Exit critical section */
 781:.\Generated_Source\PSoC5/UART_SoilMoisture_Decagon.c ****         CyExitCriticalSection(enableInterrupts);
 603              		.loc 1 781 0
 604 0046 FB79     		ldrb	r3, [r7, #7]	@ zero_extendqisi2
 605 0048 1846     		mov	r0, r3
 606 004a FFF7FEFF 		bl	CyExitCriticalSection
 782:.\Generated_Source\PSoC5/UART_SoilMoisture_Decagon.c **** 
 783:.\Generated_Source\PSoC5/UART_SoilMoisture_Decagon.c ****         #if(UART_SoilMoisture_Decagon_RXBUFFERSIZE > UART_SoilMoisture_Decagon_FIFO_LENGTH)
 784:.\Generated_Source\PSoC5/UART_SoilMoisture_Decagon.c ****             /* Disable Rx interrupt. */
 785:.\Generated_Source\PSoC5/UART_SoilMoisture_Decagon.c ****             /* Protect variables that could change on interrupt. */
 786:.\Generated_Source\PSoC5/UART_SoilMoisture_Decagon.c ****             #if(UART_SoilMoisture_Decagon_RX_INTERRUPT_ENABLED)
 787:.\Generated_Source\PSoC5/UART_SoilMoisture_Decagon.c ****                 UART_SoilMoisture_Decagon_DisableRxInt();
 788:.\Generated_Source\PSoC5/UART_SoilMoisture_Decagon.c ****             #endif /* End UART_SoilMoisture_Decagon_RX_INTERRUPT_ENABLED */
 789:.\Generated_Source\PSoC5/UART_SoilMoisture_Decagon.c **** 
 790:.\Generated_Source\PSoC5/UART_SoilMoisture_Decagon.c ****             UART_SoilMoisture_Decagon_rxBufferRead = 0u;
 791:.\Generated_Source\PSoC5/UART_SoilMoisture_Decagon.c ****             UART_SoilMoisture_Decagon_rxBufferWrite = 0u;
 792:.\Generated_Source\PSoC5/UART_SoilMoisture_Decagon.c ****             UART_SoilMoisture_Decagon_rxBufferLoopDetect = 0u;
 793:.\Generated_Source\PSoC5/UART_SoilMoisture_Decagon.c ****             UART_SoilMoisture_Decagon_rxBufferOverflow = 0u;
 794:.\Generated_Source\PSoC5/UART_SoilMoisture_Decagon.c **** 
 795:.\Generated_Source\PSoC5/UART_SoilMoisture_Decagon.c ****             /* Enable Rx interrupt. */
 796:.\Generated_Source\PSoC5/UART_SoilMoisture_Decagon.c ****             #if(UART_SoilMoisture_Decagon_RX_INTERRUPT_ENABLED)
 797:.\Generated_Source\PSoC5/UART_SoilMoisture_Decagon.c ****                 UART_SoilMoisture_Decagon_EnableRxInt();
 798:.\Generated_Source\PSoC5/UART_SoilMoisture_Decagon.c ****             #endif /* End UART_SoilMoisture_Decagon_RX_INTERRUPT_ENABLED */
 799:.\Generated_Source\PSoC5/UART_SoilMoisture_Decagon.c ****         #endif /* End UART_SoilMoisture_Decagon_RXBUFFERSIZE > UART_SoilMoisture_Decagon_FIFO_LENGT
 800:.\Generated_Source\PSoC5/UART_SoilMoisture_Decagon.c **** 
 801:.\Generated_Source\PSoC5/UART_SoilMoisture_Decagon.c ****     }
 607              		.loc 1 801 0
 608 004e 07F10807 		add	r7, r7, #8
 609 0052 BD46     		mov	sp, r7
 610 0054 80BD     		pop	{r7, pc}
 611              		.cfi_endproc
 612              	.LFE12:
 613              		.size	UART_SoilMoisture_Decagon_ClearRxBuffer, .-UART_SoilMoisture_Decagon_ClearRxBuffer
 614 0056 00BF     		.section	.text.UART_SoilMoisture_Decagon_SetRxAddressMode,"ax",%progbits
 615              		.align	2
 616              		.global	UART_SoilMoisture_Decagon_SetRxAddressMode
 617              		.thumb
 618              		.thumb_func
 619              		.type	UART_SoilMoisture_Decagon_SetRxAddressMode, %function
 620              	UART_SoilMoisture_Decagon_SetRxAddressMode:
 621              	.LFB13:
 802:.\Generated_Source\PSoC5/UART_SoilMoisture_Decagon.c **** 
 803:.\Generated_Source\PSoC5/UART_SoilMoisture_Decagon.c **** 
ARM GAS  C:\Users\hozhen\AppData\Local\Temp\ccp4Cpos.s 			page 26


 804:.\Generated_Source\PSoC5/UART_SoilMoisture_Decagon.c ****     /*******************************************************************************
 805:.\Generated_Source\PSoC5/UART_SoilMoisture_Decagon.c ****     * Function Name: UART_SoilMoisture_Decagon_SetRxAddressMode
 806:.\Generated_Source\PSoC5/UART_SoilMoisture_Decagon.c ****     ********************************************************************************
 807:.\Generated_Source\PSoC5/UART_SoilMoisture_Decagon.c ****     *
 808:.\Generated_Source\PSoC5/UART_SoilMoisture_Decagon.c ****     * Summary:
 809:.\Generated_Source\PSoC5/UART_SoilMoisture_Decagon.c ****     *  Set the receive addressing mode
 810:.\Generated_Source\PSoC5/UART_SoilMoisture_Decagon.c ****     *
 811:.\Generated_Source\PSoC5/UART_SoilMoisture_Decagon.c ****     * Parameters:
 812:.\Generated_Source\PSoC5/UART_SoilMoisture_Decagon.c ****     *  addressMode: Enumerated value indicating the mode of RX addressing
 813:.\Generated_Source\PSoC5/UART_SoilMoisture_Decagon.c ****     *  UART_SoilMoisture_Decagon__B_UART__AM_SW_BYTE_BYTE -  Software Byte-by-Byte address
 814:.\Generated_Source\PSoC5/UART_SoilMoisture_Decagon.c ****     *                                               detection
 815:.\Generated_Source\PSoC5/UART_SoilMoisture_Decagon.c ****     *  UART_SoilMoisture_Decagon__B_UART__AM_SW_DETECT_TO_BUFFER - Software Detect to Buffer
 816:.\Generated_Source\PSoC5/UART_SoilMoisture_Decagon.c ****     *                                               address detection
 817:.\Generated_Source\PSoC5/UART_SoilMoisture_Decagon.c ****     *  UART_SoilMoisture_Decagon__B_UART__AM_HW_BYTE_BY_BYTE - Hardware Byte-by-Byte address
 818:.\Generated_Source\PSoC5/UART_SoilMoisture_Decagon.c ****     *                                               detection
 819:.\Generated_Source\PSoC5/UART_SoilMoisture_Decagon.c ****     *  UART_SoilMoisture_Decagon__B_UART__AM_HW_DETECT_TO_BUFFER - Hardware Detect to Buffer
 820:.\Generated_Source\PSoC5/UART_SoilMoisture_Decagon.c ****     *                                               address detection
 821:.\Generated_Source\PSoC5/UART_SoilMoisture_Decagon.c ****     *  UART_SoilMoisture_Decagon__B_UART__AM_NONE - No address detection
 822:.\Generated_Source\PSoC5/UART_SoilMoisture_Decagon.c ****     *
 823:.\Generated_Source\PSoC5/UART_SoilMoisture_Decagon.c ****     * Return:
 824:.\Generated_Source\PSoC5/UART_SoilMoisture_Decagon.c ****     *  None.
 825:.\Generated_Source\PSoC5/UART_SoilMoisture_Decagon.c ****     *
 826:.\Generated_Source\PSoC5/UART_SoilMoisture_Decagon.c ****     * Global Variables:
 827:.\Generated_Source\PSoC5/UART_SoilMoisture_Decagon.c ****     *  UART_SoilMoisture_Decagon_rxAddressMode - the parameter stored in this variable for
 828:.\Generated_Source\PSoC5/UART_SoilMoisture_Decagon.c ****     *   the farther usage in RX ISR.
 829:.\Generated_Source\PSoC5/UART_SoilMoisture_Decagon.c ****     *  UART_SoilMoisture_Decagon_rxAddressDetected - set to initial state (0).
 830:.\Generated_Source\PSoC5/UART_SoilMoisture_Decagon.c ****     *
 831:.\Generated_Source\PSoC5/UART_SoilMoisture_Decagon.c ****     *******************************************************************************/
 832:.\Generated_Source\PSoC5/UART_SoilMoisture_Decagon.c ****     void UART_SoilMoisture_Decagon_SetRxAddressMode(uint8 addressMode)
 833:.\Generated_Source\PSoC5/UART_SoilMoisture_Decagon.c ****                                                         
 834:.\Generated_Source\PSoC5/UART_SoilMoisture_Decagon.c ****     {
 622              		.loc 1 834 0
 623              		.cfi_startproc
 624              		@ args = 0, pretend = 0, frame = 8
 625              		@ frame_needed = 1, uses_anonymous_args = 0
 626              		@ link register save eliminated.
 627 0000 80B4     		push	{r7}
 628              	.LCFI35:
 629              		.cfi_def_cfa_offset 4
 630              		.cfi_offset 7, -4
 631 0002 83B0     		sub	sp, sp, #12
 632              	.LCFI36:
 633              		.cfi_def_cfa_offset 16
 634 0004 00AF     		add	r7, sp, #0
 635              	.LCFI37:
 636              		.cfi_def_cfa_register 7
 637 0006 0346     		mov	r3, r0
 638 0008 FB71     		strb	r3, [r7, #7]
 835:.\Generated_Source\PSoC5/UART_SoilMoisture_Decagon.c ****         #if(UART_SoilMoisture_Decagon_RXHW_ADDRESS_ENABLED)
 836:.\Generated_Source\PSoC5/UART_SoilMoisture_Decagon.c ****             #if(UART_SoilMoisture_Decagon_CONTROL_REG_REMOVED)
 837:.\Generated_Source\PSoC5/UART_SoilMoisture_Decagon.c ****                 if(addressMode != 0u) { }     /* release compiler warning */
 838:.\Generated_Source\PSoC5/UART_SoilMoisture_Decagon.c ****             #else /* UART_SoilMoisture_Decagon_CONTROL_REG_REMOVED */
 839:.\Generated_Source\PSoC5/UART_SoilMoisture_Decagon.c ****                 uint8 tmpCtrl;
 840:.\Generated_Source\PSoC5/UART_SoilMoisture_Decagon.c ****                 tmpCtrl = UART_SoilMoisture_Decagon_CONTROL_REG & (uint8)~UART_SoilMoisture_Decagon
 841:.\Generated_Source\PSoC5/UART_SoilMoisture_Decagon.c ****                 tmpCtrl |= (uint8)(addressMode << UART_SoilMoisture_Decagon_CTRL_RXADDR_MODE0_SHIFT
 842:.\Generated_Source\PSoC5/UART_SoilMoisture_Decagon.c ****                 UART_SoilMoisture_Decagon_CONTROL_REG = tmpCtrl;
 843:.\Generated_Source\PSoC5/UART_SoilMoisture_Decagon.c ****                 #if(UART_SoilMoisture_Decagon_RX_INTERRUPT_ENABLED && \
ARM GAS  C:\Users\hozhen\AppData\Local\Temp\ccp4Cpos.s 			page 27


 844:.\Generated_Source\PSoC5/UART_SoilMoisture_Decagon.c ****                    (UART_SoilMoisture_Decagon_RXBUFFERSIZE > UART_SoilMoisture_Decagon_FIFO_LENGTH)
 845:.\Generated_Source\PSoC5/UART_SoilMoisture_Decagon.c ****                     UART_SoilMoisture_Decagon_rxAddressMode = addressMode;
 846:.\Generated_Source\PSoC5/UART_SoilMoisture_Decagon.c ****                     UART_SoilMoisture_Decagon_rxAddressDetected = 0u;
 847:.\Generated_Source\PSoC5/UART_SoilMoisture_Decagon.c ****                 #endif /* End UART_SoilMoisture_Decagon_RXBUFFERSIZE > UART_SoilMoisture_Decagon_FI
 848:.\Generated_Source\PSoC5/UART_SoilMoisture_Decagon.c ****             #endif /* End UART_SoilMoisture_Decagon_CONTROL_REG_REMOVED */
 849:.\Generated_Source\PSoC5/UART_SoilMoisture_Decagon.c ****         #else /* UART_SoilMoisture_Decagon_RXHW_ADDRESS_ENABLED */
 850:.\Generated_Source\PSoC5/UART_SoilMoisture_Decagon.c ****             if(addressMode != 0u) { }     /* release compiler warning */
 851:.\Generated_Source\PSoC5/UART_SoilMoisture_Decagon.c ****         #endif /* End UART_SoilMoisture_Decagon_RXHW_ADDRESS_ENABLED */
 852:.\Generated_Source\PSoC5/UART_SoilMoisture_Decagon.c ****     }
 639              		.loc 1 852 0
 640 000a 07F10C07 		add	r7, r7, #12
 641 000e BD46     		mov	sp, r7
 642 0010 80BC     		pop	{r7}
 643 0012 7047     		bx	lr
 644              		.cfi_endproc
 645              	.LFE13:
 646              		.size	UART_SoilMoisture_Decagon_SetRxAddressMode, .-UART_SoilMoisture_Decagon_SetRxAddressMode
 647              		.section	.text.UART_SoilMoisture_Decagon_SetRxAddress1,"ax",%progbits
 648              		.align	2
 649              		.global	UART_SoilMoisture_Decagon_SetRxAddress1
 650              		.thumb
 651              		.thumb_func
 652              		.type	UART_SoilMoisture_Decagon_SetRxAddress1, %function
 653              	UART_SoilMoisture_Decagon_SetRxAddress1:
 654              	.LFB14:
 853:.\Generated_Source\PSoC5/UART_SoilMoisture_Decagon.c **** 
 854:.\Generated_Source\PSoC5/UART_SoilMoisture_Decagon.c **** 
 855:.\Generated_Source\PSoC5/UART_SoilMoisture_Decagon.c ****     /*******************************************************************************
 856:.\Generated_Source\PSoC5/UART_SoilMoisture_Decagon.c ****     * Function Name: UART_SoilMoisture_Decagon_SetRxAddress1
 857:.\Generated_Source\PSoC5/UART_SoilMoisture_Decagon.c ****     ********************************************************************************
 858:.\Generated_Source\PSoC5/UART_SoilMoisture_Decagon.c ****     *
 859:.\Generated_Source\PSoC5/UART_SoilMoisture_Decagon.c ****     * Summary:
 860:.\Generated_Source\PSoC5/UART_SoilMoisture_Decagon.c ****     *  Set the first hardware address compare value
 861:.\Generated_Source\PSoC5/UART_SoilMoisture_Decagon.c ****     *
 862:.\Generated_Source\PSoC5/UART_SoilMoisture_Decagon.c ****     * Parameters:
 863:.\Generated_Source\PSoC5/UART_SoilMoisture_Decagon.c ****     *  address
 864:.\Generated_Source\PSoC5/UART_SoilMoisture_Decagon.c ****     *
 865:.\Generated_Source\PSoC5/UART_SoilMoisture_Decagon.c ****     * Return:
 866:.\Generated_Source\PSoC5/UART_SoilMoisture_Decagon.c ****     *  None.
 867:.\Generated_Source\PSoC5/UART_SoilMoisture_Decagon.c ****     *
 868:.\Generated_Source\PSoC5/UART_SoilMoisture_Decagon.c ****     *******************************************************************************/
 869:.\Generated_Source\PSoC5/UART_SoilMoisture_Decagon.c ****     void UART_SoilMoisture_Decagon_SetRxAddress1(uint8 address) 
 870:.\Generated_Source\PSoC5/UART_SoilMoisture_Decagon.c **** 
 871:.\Generated_Source\PSoC5/UART_SoilMoisture_Decagon.c ****     {
 655              		.loc 1 871 0
 656              		.cfi_startproc
 657              		@ args = 0, pretend = 0, frame = 8
 658              		@ frame_needed = 1, uses_anonymous_args = 0
 659              		@ link register save eliminated.
 660 0000 80B4     		push	{r7}
 661              	.LCFI38:
 662              		.cfi_def_cfa_offset 4
 663              		.cfi_offset 7, -4
 664 0002 83B0     		sub	sp, sp, #12
 665              	.LCFI39:
 666              		.cfi_def_cfa_offset 16
 667 0004 00AF     		add	r7, sp, #0
ARM GAS  C:\Users\hozhen\AppData\Local\Temp\ccp4Cpos.s 			page 28


 668              	.LCFI40:
 669              		.cfi_def_cfa_register 7
 670 0006 0346     		mov	r3, r0
 671 0008 FB71     		strb	r3, [r7, #7]
 872:.\Generated_Source\PSoC5/UART_SoilMoisture_Decagon.c ****         UART_SoilMoisture_Decagon_RXADDRESS1_REG = address;
 672              		.loc 1 872 0
 673 000a 46F22243 		movw	r3, #25634
 674 000e C4F20003 		movt	r3, 16384
 675 0012 FA79     		ldrb	r2, [r7, #7]
 676 0014 1A70     		strb	r2, [r3, #0]
 873:.\Generated_Source\PSoC5/UART_SoilMoisture_Decagon.c ****     }
 677              		.loc 1 873 0
 678 0016 07F10C07 		add	r7, r7, #12
 679 001a BD46     		mov	sp, r7
 680 001c 80BC     		pop	{r7}
 681 001e 7047     		bx	lr
 682              		.cfi_endproc
 683              	.LFE14:
 684              		.size	UART_SoilMoisture_Decagon_SetRxAddress1, .-UART_SoilMoisture_Decagon_SetRxAddress1
 685              		.section	.text.UART_SoilMoisture_Decagon_SetRxAddress2,"ax",%progbits
 686              		.align	2
 687              		.global	UART_SoilMoisture_Decagon_SetRxAddress2
 688              		.thumb
 689              		.thumb_func
 690              		.type	UART_SoilMoisture_Decagon_SetRxAddress2, %function
 691              	UART_SoilMoisture_Decagon_SetRxAddress2:
 692              	.LFB15:
 874:.\Generated_Source\PSoC5/UART_SoilMoisture_Decagon.c **** 
 875:.\Generated_Source\PSoC5/UART_SoilMoisture_Decagon.c **** 
 876:.\Generated_Source\PSoC5/UART_SoilMoisture_Decagon.c ****     /*******************************************************************************
 877:.\Generated_Source\PSoC5/UART_SoilMoisture_Decagon.c ****     * Function Name: UART_SoilMoisture_Decagon_SetRxAddress2
 878:.\Generated_Source\PSoC5/UART_SoilMoisture_Decagon.c ****     ********************************************************************************
 879:.\Generated_Source\PSoC5/UART_SoilMoisture_Decagon.c ****     *
 880:.\Generated_Source\PSoC5/UART_SoilMoisture_Decagon.c ****     * Summary:
 881:.\Generated_Source\PSoC5/UART_SoilMoisture_Decagon.c ****     *  Set the second hardware address compare value
 882:.\Generated_Source\PSoC5/UART_SoilMoisture_Decagon.c ****     *
 883:.\Generated_Source\PSoC5/UART_SoilMoisture_Decagon.c ****     * Parameters:
 884:.\Generated_Source\PSoC5/UART_SoilMoisture_Decagon.c ****     *  address
 885:.\Generated_Source\PSoC5/UART_SoilMoisture_Decagon.c ****     *
 886:.\Generated_Source\PSoC5/UART_SoilMoisture_Decagon.c ****     * Return:
 887:.\Generated_Source\PSoC5/UART_SoilMoisture_Decagon.c ****     *  None.
 888:.\Generated_Source\PSoC5/UART_SoilMoisture_Decagon.c ****     *
 889:.\Generated_Source\PSoC5/UART_SoilMoisture_Decagon.c ****     *******************************************************************************/
 890:.\Generated_Source\PSoC5/UART_SoilMoisture_Decagon.c ****     void UART_SoilMoisture_Decagon_SetRxAddress2(uint8 address) 
 891:.\Generated_Source\PSoC5/UART_SoilMoisture_Decagon.c ****     {
 693              		.loc 1 891 0
 694              		.cfi_startproc
 695              		@ args = 0, pretend = 0, frame = 8
 696              		@ frame_needed = 1, uses_anonymous_args = 0
 697              		@ link register save eliminated.
 698 0000 80B4     		push	{r7}
 699              	.LCFI41:
 700              		.cfi_def_cfa_offset 4
 701              		.cfi_offset 7, -4
 702 0002 83B0     		sub	sp, sp, #12
 703              	.LCFI42:
 704              		.cfi_def_cfa_offset 16
ARM GAS  C:\Users\hozhen\AppData\Local\Temp\ccp4Cpos.s 			page 29


 705 0004 00AF     		add	r7, sp, #0
 706              	.LCFI43:
 707              		.cfi_def_cfa_register 7
 708 0006 0346     		mov	r3, r0
 709 0008 FB71     		strb	r3, [r7, #7]
 892:.\Generated_Source\PSoC5/UART_SoilMoisture_Decagon.c ****         UART_SoilMoisture_Decagon_RXADDRESS2_REG = address;
 710              		.loc 1 892 0
 711 000a 46F23243 		movw	r3, #25650
 712 000e C4F20003 		movt	r3, 16384
 713 0012 FA79     		ldrb	r2, [r7, #7]
 714 0014 1A70     		strb	r2, [r3, #0]
 893:.\Generated_Source\PSoC5/UART_SoilMoisture_Decagon.c ****     }
 715              		.loc 1 893 0
 716 0016 07F10C07 		add	r7, r7, #12
 717 001a BD46     		mov	sp, r7
 718 001c 80BC     		pop	{r7}
 719 001e 7047     		bx	lr
 720              		.cfi_endproc
 721              	.LFE15:
 722              		.size	UART_SoilMoisture_Decagon_SetRxAddress2, .-UART_SoilMoisture_Decagon_SetRxAddress2
 723              		.text
 724              	.Letext0:
 725              		.file 2 ".\\Generated_Source\\PSoC5\\cytypes.h"