ARM GAS  C:\Users\hozhen\AppData\Local\Temp\ccuVf2Hu.s 			page 1


   1              		.syntax unified
   2              		.cpu cortex-m3
   3              		.fpu softvfp
   4              		.eabi_attribute 20, 1
   5              		.eabi_attribute 21, 1
   6              		.eabi_attribute 23, 3
   7              		.eabi_attribute 24, 1
   8              		.eabi_attribute 25, 1
   9              		.eabi_attribute 26, 1
  10              		.eabi_attribute 30, 6
  11              		.eabi_attribute 34, 1
  12              		.eabi_attribute 18, 4
  13              		.thumb
  14              		.file	"SoilMoisture_Decagon.c"
  15              		.text
  16              	.Ltext0:
  17              		.cfi_sections	.debug_frame
  18              		.comm	raw_serial_data_d,100,4
  19              		.comm	raw_serial_data_count_d,1,1
  20              		.section	.text.SoilMoisture_Decagon_Start,"ax",%progbits
  21              		.align	2
  22              		.global	SoilMoisture_Decagon_Start
  23              		.thumb
  24              		.thumb_func
  25              		.type	SoilMoisture_Decagon_Start, %function
  26              	SoilMoisture_Decagon_Start:
  27              	.LFB56:
  28              		.file 1 "..\\..\\..\\PSoC\\Drivers\\Decagon_Soilmoisture\\Decagon_Soilmoisture.cydsn\\SoilMoisture
   1:..\..\..\PSoC\Drivers\Decagon_Soilmoisture\Decagon_Soilmoisture.cydsn/SoilMoisture_Decagon.c **** //==============================Header File/Global Variable==============================
   2:..\..\..\PSoC\Drivers\Decagon_Soilmoisture\Decagon_Soilmoisture.cydsn/SoilMoisture_Decagon.c **** //Standard String Library
   3:..\..\..\PSoC\Drivers\Decagon_Soilmoisture\Decagon_Soilmoisture.cydsn/SoilMoisture_Decagon.c **** #include <string.h>
   4:..\..\..\PSoC\Drivers\Decagon_Soilmoisture\Decagon_Soilmoisture.cydsn/SoilMoisture_Decagon.c **** //Import the header file that has all the files listed for use in the master file later
   5:..\..\..\PSoC\Drivers\Decagon_Soilmoisture\Decagon_Soilmoisture.cydsn/SoilMoisture_Decagon.c **** #include "SoilMoisture_Decagon.h"
   6:..\..\..\PSoC\Drivers\Decagon_Soilmoisture\Decagon_Soilmoisture.cydsn/SoilMoisture_Decagon.c **** //Global Variable for the number of characters received from the UART reading
   7:..\..\..\PSoC\Drivers\Decagon_Soilmoisture\Decagon_Soilmoisture.cydsn/SoilMoisture_Decagon.c **** #define RAW_SERIAL_DATA_LENGTH_d 100
   8:..\..\..\PSoC\Drivers\Decagon_Soilmoisture\Decagon_Soilmoisture.cydsn/SoilMoisture_Decagon.c **** //How many reading to we want to average by after the reading's been parsed.
   9:..\..\..\PSoC\Drivers\Decagon_Soilmoisture\Decagon_Soilmoisture.cydsn/SoilMoisture_Decagon.c **** #define VALUES_ARRAY_LENGTH 6
  10:..\..\..\PSoC\Drivers\Decagon_Soilmoisture\Decagon_Soilmoisture.cydsn/SoilMoisture_Decagon.c **** //This is where we stored the initial UART reading result
  11:..\..\..\PSoC\Drivers\Decagon_Soilmoisture\Decagon_Soilmoisture.cydsn/SoilMoisture_Decagon.c **** uint8 raw_serial_data_d[RAW_SERIAL_DATA_LENGTH_d];
  12:..\..\..\PSoC\Drivers\Decagon_Soilmoisture\Decagon_Soilmoisture.cydsn/SoilMoisture_Decagon.c **** //counter for interrupt readings
  13:..\..\..\PSoC\Drivers\Decagon_Soilmoisture\Decagon_Soilmoisture.cydsn/SoilMoisture_Decagon.c **** uint8 raw_serial_data_count_d;
  14:..\..\..\PSoC\Drivers\Decagon_Soilmoisture\Decagon_Soilmoisture.cydsn/SoilMoisture_Decagon.c **** 
  15:..\..\..\PSoC\Drivers\Decagon_Soilmoisture\Decagon_Soilmoisture.cydsn/SoilMoisture_Decagon.c **** //CY_ISR_PROTO(IntUartRx);
  16:..\..\..\PSoC\Drivers\Decagon_Soilmoisture\Decagon_Soilmoisture.cydsn/SoilMoisture_Decagon.c **** 
  17:..\..\..\PSoC\Drivers\Decagon_Soilmoisture\Decagon_Soilmoisture.cydsn/SoilMoisture_Decagon.c **** 
  18:..\..\..\PSoC\Drivers\Decagon_Soilmoisture\Decagon_Soilmoisture.cydsn/SoilMoisture_Decagon.c **** //===============================Start Function==============================
  19:..\..\..\PSoC\Drivers\Decagon_Soilmoisture\Decagon_Soilmoisture.cydsn/SoilMoisture_Decagon.c **** void SoilMoisture_Decagon_Start(){
  29              		.loc 1 19 0
  30              		.cfi_startproc
  31              		@ args = 0, pretend = 0, frame = 0
  32              		@ frame_needed = 1, uses_anonymous_args = 0
  33 0000 80B5     		push	{r7, lr}
  34              	.LCFI0:
  35              		.cfi_def_cfa_offset 8
  36              		.cfi_offset 7, -8
  37              		.cfi_offset 14, -4
  38 0002 00AF     		add	r7, sp, #0
ARM GAS  C:\Users\hozhen\AppData\Local\Temp\ccuVf2Hu.s 			page 2


  39              	.LCFI1:
  40              		.cfi_def_cfa_register 7
  20:..\..\..\PSoC\Drivers\Decagon_Soilmoisture\Decagon_Soilmoisture.cydsn/SoilMoisture_Decagon.c **** 
  21:..\..\..\PSoC\Drivers\Decagon_Soilmoisture\Decagon_Soilmoisture.cydsn/SoilMoisture_Decagon.c ****     //Call the UART Start 
  22:..\..\..\PSoC\Drivers\Decagon_Soilmoisture\Decagon_Soilmoisture.cydsn/SoilMoisture_Decagon.c ****     UART_SoilMoisture_Decagon_Start();
  41              		.loc 1 22 0
  42 0004 FFF7FEFF 		bl	UART_SoilMoisture_Decagon_Start
  23:..\..\..\PSoC\Drivers\Decagon_Soilmoisture\Decagon_Soilmoisture.cydsn/SoilMoisture_Decagon.c **** 
  24:..\..\..\PSoC\Drivers\Decagon_Soilmoisture\Decagon_Soilmoisture.cydsn/SoilMoisture_Decagon.c **** }
  43              		.loc 1 24 0
  44 0008 80BD     		pop	{r7, pc}
  45              		.cfi_endproc
  46              	.LFE56:
  47              		.size	SoilMoisture_Decagon_Start, .-SoilMoisture_Decagon_Start
  48 000a 00BF     		.section	.text.IntUartRx_D,"ax",%progbits
  49              		.align	2
  50              		.global	IntUartRx_D
  51              		.thumb
  52              		.thumb_func
  53              		.type	IntUartRx_D, %function
  54              	IntUartRx_D:
  55              	.LFB57:
  25:..\..\..\PSoC\Drivers\Decagon_Soilmoisture\Decagon_Soilmoisture.cydsn/SoilMoisture_Decagon.c **** 
  26:..\..\..\PSoC\Drivers\Decagon_Soilmoisture\Decagon_Soilmoisture.cydsn/SoilMoisture_Decagon.c **** //===============================Interrupt Function==============================
  27:..\..\..\PSoC\Drivers\Decagon_Soilmoisture\Decagon_Soilmoisture.cydsn/SoilMoisture_Decagon.c **** CY_ISR(IntUartRx_D)
  28:..\..\..\PSoC\Drivers\Decagon_Soilmoisture\Decagon_Soilmoisture.cydsn/SoilMoisture_Decagon.c **** {
  56              		.loc 1 28 0
  57              		.cfi_startproc
  58              		@ args = 0, pretend = 0, frame = 8
  59              		@ frame_needed = 1, uses_anonymous_args = 0
  60 0000 80B5     		push	{r7, lr}
  61              	.LCFI2:
  62              		.cfi_def_cfa_offset 8
  63              		.cfi_offset 7, -8
  64              		.cfi_offset 14, -4
  65 0002 82B0     		sub	sp, sp, #8
  66              	.LCFI3:
  67              		.cfi_def_cfa_offset 16
  68 0004 00AF     		add	r7, sp, #0
  69              	.LCFI4:
  70              		.cfi_def_cfa_register 7
  29:..\..\..\PSoC\Drivers\Decagon_Soilmoisture\Decagon_Soilmoisture.cydsn/SoilMoisture_Decagon.c ****    uint8 getchar;
  30:..\..\..\PSoC\Drivers\Decagon_Soilmoisture\Decagon_Soilmoisture.cydsn/SoilMoisture_Decagon.c ****    getchar  = UART_SoilMoisture_Decagon_GetChar();
  71              		.loc 1 30 0
  72 0006 FFF7FEFF 		bl	UART_SoilMoisture_Decagon_GetChar
  73 000a 0346     		mov	r3, r0
  74 000c FB71     		strb	r3, [r7, #7]
  31:..\..\..\PSoC\Drivers\Decagon_Soilmoisture\Decagon_Soilmoisture.cydsn/SoilMoisture_Decagon.c ****         
  32:..\..\..\PSoC\Drivers\Decagon_Soilmoisture\Decagon_Soilmoisture.cydsn/SoilMoisture_Decagon.c ****    if(getchar > 0u && raw_serial_data_count_d < RAW_SERIAL_DATA_LENGTH_d){
  75              		.loc 1 32 0
  76 000e FB79     		ldrb	r3, [r7, #7]	@ zero_extendqisi2
  77 0010 002B     		cmp	r3, #0
  78 0012 1FD0     		beq	.L2
  79              		.loc 1 32 0 is_stmt 0 discriminator 1
  80 0014 40F20003 		movw	r3, #:lower16:raw_serial_data_count_d
  81 0018 C0F20003 		movt	r3, #:upper16:raw_serial_data_count_d
  82 001c 1B78     		ldrb	r3, [r3, #0]	@ zero_extendqisi2
ARM GAS  C:\Users\hozhen\AppData\Local\Temp\ccuVf2Hu.s 			page 3


  83 001e 632B     		cmp	r3, #99
  84 0020 18D8     		bhi	.L2
  33:..\..\..\PSoC\Drivers\Decagon_Soilmoisture\Decagon_Soilmoisture.cydsn/SoilMoisture_Decagon.c ****         raw_serial_data_d[raw_serial_data_count_d] = getchar;
  85              		.loc 1 33 0 is_stmt 1
  86 0022 40F20003 		movw	r3, #:lower16:raw_serial_data_count_d
  87 0026 C0F20003 		movt	r3, #:upper16:raw_serial_data_count_d
  88 002a 1B78     		ldrb	r3, [r3, #0]	@ zero_extendqisi2
  89 002c 1A46     		mov	r2, r3
  90 002e 40F20003 		movw	r3, #:lower16:raw_serial_data_d
  91 0032 C0F20003 		movt	r3, #:upper16:raw_serial_data_d
  92 0036 F979     		ldrb	r1, [r7, #7]
  93 0038 9954     		strb	r1, [r3, r2]
  34:..\..\..\PSoC\Drivers\Decagon_Soilmoisture\Decagon_Soilmoisture.cydsn/SoilMoisture_Decagon.c ****         raw_serial_data_count_d++;
  94              		.loc 1 34 0
  95 003a 40F20003 		movw	r3, #:lower16:raw_serial_data_count_d
  96 003e C0F20003 		movt	r3, #:upper16:raw_serial_data_count_d
  97 0042 1B78     		ldrb	r3, [r3, #0]	@ zero_extendqisi2
  98 0044 03F10103 		add	r3, r3, #1
  99 0048 DAB2     		uxtb	r2, r3
 100 004a 40F20003 		movw	r3, #:lower16:raw_serial_data_count_d
 101 004e C0F20003 		movt	r3, #:upper16:raw_serial_data_count_d
 102 0052 1A70     		strb	r2, [r3, #0]
 103              	.L2:
  35:..\..\..\PSoC\Drivers\Decagon_Soilmoisture\Decagon_Soilmoisture.cydsn/SoilMoisture_Decagon.c ****         }   
  36:..\..\..\PSoC\Drivers\Decagon_Soilmoisture\Decagon_Soilmoisture.cydsn/SoilMoisture_Decagon.c ****     
  37:..\..\..\PSoC\Drivers\Decagon_Soilmoisture\Decagon_Soilmoisture.cydsn/SoilMoisture_Decagon.c **** }
 104              		.loc 1 37 0
 105 0054 07F10807 		add	r7, r7, #8
 106 0058 BD46     		mov	sp, r7
 107 005a 80BD     		pop	{r7, pc}
 108              		.cfi_endproc
 109              	.LFE57:
 110              		.size	IntUartRx_D, .-IntUartRx_D
 111              		.section	.rodata
 112              		.align	2
 113              	.LC0:
 114 0000 09256620 		.ascii	"\011%f %f %d\015%s\000"
 114      25662025 
 114      640D2573 
 114      00
 115 000d 000000   		.section	.text.SoilMoisture_Decagon_Convert_Raw_Reading,"ax",%progbits
 116              		.align	2
 117              		.global	SoilMoisture_Decagon_Convert_Raw_Reading
 118              		.thumb
 119              		.thumb_func
 120              		.type	SoilMoisture_Decagon_Convert_Raw_Reading, %function
 121              	SoilMoisture_Decagon_Convert_Raw_Reading:
 122              	.LFB58:
  38:..\..\..\PSoC\Drivers\Decagon_Soilmoisture\Decagon_Soilmoisture.cydsn/SoilMoisture_Decagon.c **** 
  39:..\..\..\PSoC\Drivers\Decagon_Soilmoisture\Decagon_Soilmoisture.cydsn/SoilMoisture_Decagon.c **** //===============================Data Conversion Function==============================
  40:..\..\..\PSoC\Drivers\Decagon_Soilmoisture\Decagon_Soilmoisture.cydsn/SoilMoisture_Decagon.c **** //WATCH IT HERE!!
  41:..\..\..\PSoC\Drivers\Decagon_Soilmoisture\Decagon_Soilmoisture.cydsn/SoilMoisture_Decagon.c **** //Still needs to figure out what to do with the parsing Item
  42:..\..\..\PSoC\Drivers\Decagon_Soilmoisture\Decagon_Soilmoisture.cydsn/SoilMoisture_Decagon.c **** /*
  43:..\..\..\PSoC\Drivers\Decagon_Soilmoisture\Decagon_Soilmoisture.cydsn/SoilMoisture_Decagon.c **** DecagonGS3 SoilMoisture_Decagon_Convert_Raw_Reading(uint8* raw_D){
  44:..\..\..\PSoC\Drivers\Decagon_Soilmoisture\Decagon_Soilmoisture.cydsn/SoilMoisture_Decagon.c ****     DecagonGS3 final_reading;
  45:..\..\..\PSoC\Drivers\Decagon_Soilmoisture\Decagon_Soilmoisture.cydsn/SoilMoisture_Decagon.c ****     final_reading.valid = 0u;
  46:..\..\..\PSoC\Drivers\Decagon_Soilmoisture\Decagon_Soilmoisture.cydsn/SoilMoisture_Decagon.c ****         
ARM GAS  C:\Users\hozhen\AppData\Local\Temp\ccuVf2Hu.s 			page 4


  47:..\..\..\PSoC\Drivers\Decagon_Soilmoisture\Decagon_Soilmoisture.cydsn/SoilMoisture_Decagon.c ****     final_reading.valid  = sscanf(raw_D,"\x09%f %f %d\x0d%s",&final_reading.dielectric,
  48:..\..\..\PSoC\Drivers\Decagon_Soilmoisture\Decagon_Soilmoisture.cydsn/SoilMoisture_Decagon.c ****                                 &final_reading.temp,&final_reading.conductivity,NULL);
  49:..\..\..\PSoC\Drivers\Decagon_Soilmoisture\Decagon_Soilmoisture.cydsn/SoilMoisture_Decagon.c ****     
  50:..\..\..\PSoC\Drivers\Decagon_Soilmoisture\Decagon_Soilmoisture.cydsn/SoilMoisture_Decagon.c ****     if(final_reading.valid != 4){
  51:..\..\..\PSoC\Drivers\Decagon_Soilmoisture\Decagon_Soilmoisture.cydsn/SoilMoisture_Decagon.c ****         final_reading.valid = 0;
  52:..\..\..\PSoC\Drivers\Decagon_Soilmoisture\Decagon_Soilmoisture.cydsn/SoilMoisture_Decagon.c ****     }
  53:..\..\..\PSoC\Drivers\Decagon_Soilmoisture\Decagon_Soilmoisture.cydsn/SoilMoisture_Decagon.c ****     
  54:..\..\..\PSoC\Drivers\Decagon_Soilmoisture\Decagon_Soilmoisture.cydsn/SoilMoisture_Decagon.c ****     return final_reading;
  55:..\..\..\PSoC\Drivers\Decagon_Soilmoisture\Decagon_Soilmoisture.cydsn/SoilMoisture_Decagon.c ****     
  56:..\..\..\PSoC\Drivers\Decagon_Soilmoisture\Decagon_Soilmoisture.cydsn/SoilMoisture_Decagon.c **** }
  57:..\..\..\PSoC\Drivers\Decagon_Soilmoisture\Decagon_Soilmoisture.cydsn/SoilMoisture_Decagon.c **** */
  58:..\..\..\PSoC\Drivers\Decagon_Soilmoisture\Decagon_Soilmoisture.cydsn/SoilMoisture_Decagon.c **** //===
  59:..\..\..\PSoC\Drivers\Decagon_Soilmoisture\Decagon_Soilmoisture.cydsn/SoilMoisture_Decagon.c **** DecagonGS3 SoilMoisture_Decagon_Convert_Raw_Reading(uint8* raw_D){
 123              		.loc 1 59 0
 124              		.cfi_startproc
 125              		@ args = 0, pretend = 0, frame = 24
 126              		@ frame_needed = 1, uses_anonymous_args = 0
 127 0000 90B5     		push	{r4, r7, lr}
 128              	.LCFI5:
 129              		.cfi_def_cfa_offset 12
 130              		.cfi_offset 4, -12
 131              		.cfi_offset 7, -8
 132              		.cfi_offset 14, -4
 133 0002 89B0     		sub	sp, sp, #36
 134              	.LCFI6:
 135              		.cfi_def_cfa_offset 48
 136 0004 02AF     		add	r7, sp, #8
 137              	.LCFI7:
 138              		.cfi_def_cfa 7, 40
 139 0006 7860     		str	r0, [r7, #4]
 140 0008 3960     		str	r1, [r7, #0]
  60:..\..\..\PSoC\Drivers\Decagon_Soilmoisture\Decagon_Soilmoisture.cydsn/SoilMoisture_Decagon.c ****     DecagonGS3 final_reading;
  61:..\..\..\PSoC\Drivers\Decagon_Soilmoisture\Decagon_Soilmoisture.cydsn/SoilMoisture_Decagon.c ****     final_reading.valid = 0u;
 141              		.loc 1 61 0
 142 000a 4FF00003 		mov	r3, #0
 143 000e BB75     		strb	r3, [r7, #22]
  62:..\..\..\PSoC\Drivers\Decagon_Soilmoisture\Decagon_Soilmoisture.cydsn/SoilMoisture_Decagon.c **** 
  63:..\..\..\PSoC\Drivers\Decagon_Soilmoisture\Decagon_Soilmoisture.cydsn/SoilMoisture_Decagon.c ****     //
  64:..\..\..\PSoC\Drivers\Decagon_Soilmoisture\Decagon_Soilmoisture.cydsn/SoilMoisture_Decagon.c ****     
  65:..\..\..\PSoC\Drivers\Decagon_Soilmoisture\Decagon_Soilmoisture.cydsn/SoilMoisture_Decagon.c ****     final_reading.valid  = sscanf(raw_D,"\x09%f %f %d\r%s",&final_reading.dielectric,
 144              		.loc 1 65 0
 145 0010 07F10802 		add	r2, r7, #8
 146 0014 07F10803 		add	r3, r7, #8
 147 0018 03F10403 		add	r3, r3, #4
 148 001c 07F10801 		add	r1, r7, #8
 149 0020 01F10C01 		add	r1, r1, #12
 150 0024 0091     		str	r1, [sp, #0]
 151 0026 4FF00001 		mov	r1, #0
 152 002a 0191     		str	r1, [sp, #4]
 153 002c 3868     		ldr	r0, [r7, #0]
 154 002e 40F20001 		movw	r1, #:lower16:.LC0
 155 0032 C0F20001 		movt	r1, #:upper16:.LC0
 156 0036 FFF7FEFF 		bl	sscanf
 157 003a 0346     		mov	r3, r0
 158 003c DBB2     		uxtb	r3, r3
 159 003e BB75     		strb	r3, [r7, #22]
  66:..\..\..\PSoC\Drivers\Decagon_Soilmoisture\Decagon_Soilmoisture.cydsn/SoilMoisture_Decagon.c ****                                 &final_reading.temp,&final_reading.conductivity,NULL);
ARM GAS  C:\Users\hozhen\AppData\Local\Temp\ccuVf2Hu.s 			page 5


  67:..\..\..\PSoC\Drivers\Decagon_Soilmoisture\Decagon_Soilmoisture.cydsn/SoilMoisture_Decagon.c **** 
  68:..\..\..\PSoC\Drivers\Decagon_Soilmoisture\Decagon_Soilmoisture.cydsn/SoilMoisture_Decagon.c ****     if(final_reading.valid != 4){
 160              		.loc 1 68 0
 161 0040 BB7D     		ldrb	r3, [r7, #22]	@ zero_extendqisi2
 162 0042 042B     		cmp	r3, #4
 163 0044 02D0     		beq	.L5
  69:..\..\..\PSoC\Drivers\Decagon_Soilmoisture\Decagon_Soilmoisture.cydsn/SoilMoisture_Decagon.c ****         final_reading.valid = 0;
 164              		.loc 1 69 0
 165 0046 4FF00003 		mov	r3, #0
 166 004a BB75     		strb	r3, [r7, #22]
 167              	.L5:
  70:..\..\..\PSoC\Drivers\Decagon_Soilmoisture\Decagon_Soilmoisture.cydsn/SoilMoisture_Decagon.c ****     }
  71:..\..\..\PSoC\Drivers\Decagon_Soilmoisture\Decagon_Soilmoisture.cydsn/SoilMoisture_Decagon.c ****     
  72:..\..\..\PSoC\Drivers\Decagon_Soilmoisture\Decagon_Soilmoisture.cydsn/SoilMoisture_Decagon.c ****     return final_reading;
 168              		.loc 1 72 0
 169 004c 7B68     		ldr	r3, [r7, #4]
 170 004e 1C46     		mov	r4, r3
 171 0050 07F10803 		add	r3, r7, #8
 172 0054 0FCB     		ldmia	r3, {r0, r1, r2, r3}
 173 0056 84E80F00 		stmia	r4, {r0, r1, r2, r3}
  73:..\..\..\PSoC\Drivers\Decagon_Soilmoisture\Decagon_Soilmoisture.cydsn/SoilMoisture_Decagon.c ****     
  74:..\..\..\PSoC\Drivers\Decagon_Soilmoisture\Decagon_Soilmoisture.cydsn/SoilMoisture_Decagon.c **** }
 174              		.loc 1 74 0
 175 005a 7868     		ldr	r0, [r7, #4]
 176 005c 07F11C07 		add	r7, r7, #28
 177 0060 BD46     		mov	sp, r7
 178 0062 90BD     		pop	{r4, r7, pc}
 179              		.cfi_endproc
 180              	.LFE58:
 181              		.size	SoilMoisture_Decagon_Convert_Raw_Reading, .-SoilMoisture_Decagon_Convert_Raw_Reading
 182              		.section	.text.SoilMoisture_Decagon_Take_Reading,"ax",%progbits
 183              		.align	2
 184              		.global	SoilMoisture_Decagon_Take_Reading
 185              		.thumb
 186              		.thumb_func
 187              		.type	SoilMoisture_Decagon_Take_Reading, %function
 188              	SoilMoisture_Decagon_Take_Reading:
 189              	.LFB59:
  75:..\..\..\PSoC\Drivers\Decagon_Soilmoisture\Decagon_Soilmoisture.cydsn/SoilMoisture_Decagon.c **** //===
  76:..\..\..\PSoC\Drivers\Decagon_Soilmoisture\Decagon_Soilmoisture.cydsn/SoilMoisture_Decagon.c **** 
  77:..\..\..\PSoC\Drivers\Decagon_Soilmoisture\Decagon_Soilmoisture.cydsn/SoilMoisture_Decagon.c **** 
  78:..\..\..\PSoC\Drivers\Decagon_Soilmoisture\Decagon_Soilmoisture.cydsn/SoilMoisture_Decagon.c **** DecagonGS3 SoilMoisture_Decagon_Take_Reading(){
 190              		.loc 1 78 0
 191              		.cfi_startproc
 192              		@ args = 0, pretend = 0, frame = 24
 193              		@ frame_needed = 1, uses_anonymous_args = 0
 194 0000 90B5     		push	{r4, r7, lr}
 195              	.LCFI8:
 196              		.cfi_def_cfa_offset 12
 197              		.cfi_offset 4, -12
 198              		.cfi_offset 7, -8
 199              		.cfi_offset 14, -4
 200 0002 87B0     		sub	sp, sp, #28
 201              	.LCFI9:
 202              		.cfi_def_cfa_offset 40
 203 0004 00AF     		add	r7, sp, #0
 204              	.LCFI10:
ARM GAS  C:\Users\hozhen\AppData\Local\Temp\ccuVf2Hu.s 			page 6


 205              		.cfi_def_cfa_register 7
 206 0006 7860     		str	r0, [r7, #4]
  79:..\..\..\PSoC\Drivers\Decagon_Soilmoisture\Decagon_Soilmoisture.cydsn/SoilMoisture_Decagon.c **** 
  80:..\..\..\PSoC\Drivers\Decagon_Soilmoisture\Decagon_Soilmoisture.cydsn/SoilMoisture_Decagon.c **** //    uint8 getchar;
  81:..\..\..\PSoC\Drivers\Decagon_Soilmoisture\Decagon_Soilmoisture.cydsn/SoilMoisture_Decagon.c ****     //uint8 arraycount = 0u;
  82:..\..\..\PSoC\Drivers\Decagon_Soilmoisture\Decagon_Soilmoisture.cydsn/SoilMoisture_Decagon.c ****     raw_serial_data_count_d = 0u;
 207              		.loc 1 82 0
 208 0008 40F20003 		movw	r3, #:lower16:raw_serial_data_count_d
 209 000c C0F20003 		movt	r3, #:upper16:raw_serial_data_count_d
 210 0010 4FF00002 		mov	r2, #0
 211 0014 1A70     		strb	r2, [r3, #0]
  83:..\..\..\PSoC\Drivers\Decagon_Soilmoisture\Decagon_Soilmoisture.cydsn/SoilMoisture_Decagon.c ****     CyDelay(1000u);
 212              		.loc 1 83 0
 213 0016 4FF47A70 		mov	r0, #1000
 214 001a FFF7FEFF 		bl	CyDelay
  84:..\..\..\PSoC\Drivers\Decagon_Soilmoisture\Decagon_Soilmoisture.cydsn/SoilMoisture_Decagon.c ****     Decagon_Sensor_Power_Write(0u); 
 215              		.loc 1 84 0
 216 001e 4FF00000 		mov	r0, #0
 217 0022 FFF7FEFF 		bl	Decagon_Sensor_Power_Write
  85:..\..\..\PSoC\Drivers\Decagon_Soilmoisture\Decagon_Soilmoisture.cydsn/SoilMoisture_Decagon.c ****     isr_SoilMoisture_Decagon_StartEx(IntUartRx_D);
 218              		.loc 1 85 0
 219 0026 40F20000 		movw	r0, #:lower16:IntUartRx_D
 220 002a C0F20000 		movt	r0, #:upper16:IntUartRx_D
 221 002e FFF7FEFF 		bl	isr_SoilMoisture_Decagon_StartEx
  86:..\..\..\PSoC\Drivers\Decagon_Soilmoisture\Decagon_Soilmoisture.cydsn/SoilMoisture_Decagon.c ****     CyDelay(2000u);
 222              		.loc 1 86 0
 223 0032 4FF4FA60 		mov	r0, #2000
 224 0036 FFF7FEFF 		bl	CyDelay
  87:..\..\..\PSoC\Drivers\Decagon_Soilmoisture\Decagon_Soilmoisture.cydsn/SoilMoisture_Decagon.c ****     Decagon_Sensor_Power_Write(1u);
 225              		.loc 1 87 0
 226 003a 4FF00100 		mov	r0, #1
 227 003e FFF7FEFF 		bl	Decagon_Sensor_Power_Write
  88:..\..\..\PSoC\Drivers\Decagon_Soilmoisture\Decagon_Soilmoisture.cydsn/SoilMoisture_Decagon.c ****     isr_SoilMoisture_Decagon_Stop();
 228              		.loc 1 88 0
 229 0042 FFF7FEFF 		bl	isr_SoilMoisture_Decagon_Stop
  89:..\..\..\PSoC\Drivers\Decagon_Soilmoisture\Decagon_Soilmoisture.cydsn/SoilMoisture_Decagon.c **** 
  90:..\..\..\PSoC\Drivers\Decagon_Soilmoisture\Decagon_Soilmoisture.cydsn/SoilMoisture_Decagon.c ****     DecagonGS3 SoilMoisture;
  91:..\..\..\PSoC\Drivers\Decagon_Soilmoisture\Decagon_Soilmoisture.cydsn/SoilMoisture_Decagon.c ****     SoilMoisture = SoilMoisture_Decagon_Convert_Raw_Reading(raw_serial_data_d);
 230              		.loc 1 91 0
 231 0046 07F10803 		add	r3, r7, #8
 232 004a 1846     		mov	r0, r3
 233 004c 40F20001 		movw	r1, #:lower16:raw_serial_data_d
 234 0050 C0F20001 		movt	r1, #:upper16:raw_serial_data_d
 235 0054 FFF7FEFF 		bl	SoilMoisture_Decagon_Convert_Raw_Reading
  92:..\..\..\PSoC\Drivers\Decagon_Soilmoisture\Decagon_Soilmoisture.cydsn/SoilMoisture_Decagon.c ****     return SoilMoisture;
 236              		.loc 1 92 0
 237 0058 7B68     		ldr	r3, [r7, #4]
 238 005a 1C46     		mov	r4, r3
 239 005c 07F10803 		add	r3, r7, #8
 240 0060 0FCB     		ldmia	r3, {r0, r1, r2, r3}
 241 0062 84E80F00 		stmia	r4, {r0, r1, r2, r3}
  93:..\..\..\PSoC\Drivers\Decagon_Soilmoisture\Decagon_Soilmoisture.cydsn/SoilMoisture_Decagon.c **** }
 242              		.loc 1 93 0
 243 0066 7868     		ldr	r0, [r7, #4]
 244 0068 07F11C07 		add	r7, r7, #28
 245 006c BD46     		mov	sp, r7
 246 006e 90BD     		pop	{r4, r7, pc}
ARM GAS  C:\Users\hozhen\AppData\Local\Temp\ccuVf2Hu.s 			page 7


 247              		.cfi_endproc
 248              	.LFE59:
 249              		.size	SoilMoisture_Decagon_Take_Reading, .-SoilMoisture_Decagon_Take_Reading
 250              		.text
 251              	.Letext0:
 252              		.file 2 "c:\\program files (x86)\\cypress\\psoc creator\\3.0\\psoc creator\\import\\gnu_cs\\arm\\4
 253              		.file 3 "./Generated_Source/PSoC5/cytypes.h"
 254              		.file 4 "..\\..\\..\\PSoC\\Drivers\\Decagon_Soilmoisture\\Decagon_Soilmoisture.cydsn\\SoilMoisture
 255              		.file 5 "./Generated_Source/PSoC5/core_cm3.h"
 256              		.file 6 "<built-in>"