ARM GAS  C:\Users\hozhen\AppData\Local\Temp\cc192GiM.s 			page 1


   1              		.syntax unified
   2              		.cpu cortex-m3
   3              		.fpu softvfp
   4              		.eabi_attribute 20, 1
   5              		.eabi_attribute 21, 1
   6              		.eabi_attribute 23, 3
   7              		.eabi_attribute 24, 1
   8              		.eabi_attribute 25, 1
   9              		.eabi_attribute 26, 1
  10              		.eabi_attribute 30, 6
  11              		.eabi_attribute 34, 1
  12              		.eabi_attribute 18, 4
  13              		.thumb
  14              		.file	"Ultrasonic_Maxbotix.c"
  15              		.text
  16              	.Ltext0:
  17              		.cfi_sections	.debug_frame
  18              		.comm	raw_serial_data_m,30,4
  19              		.comm	raw_serial_data_count_m,1,1
  20              		.section	.text.Ultrasonic_Maxbotix_Start,"ax",%progbits
  21              		.align	2
  22              		.global	Ultrasonic_Maxbotix_Start
  23              		.thumb
  24              		.thumb_func
  25              		.type	Ultrasonic_Maxbotix_Start, %function
  26              	Ultrasonic_Maxbotix_Start:
  27              	.LFB56:
  28              		.file 1 "..\\..\\..\\PSoC\\Drivers\\Ultrasonic_Maxbotix\\Ultrasonic_Maxbotix\\Ultrasonic_Maxbotix.
   1:..\..\..\PSoC\Drivers\Ultrasonic_Maxbotix\Ultrasonic_Maxbotix\Ultrasonic_Maxbotix.cydsn/Ultrasonic_Maxbotix.c **** /* ========================================
   2:..\..\..\PSoC\Drivers\Ultrasonic_Maxbotix\Ultrasonic_Maxbotix\Ultrasonic_Maxbotix.cydsn/Ultrasonic_Maxbotix.c ****  *
   3:..\..\..\PSoC\Drivers\Ultrasonic_Maxbotix\Ultrasonic_Maxbotix\Ultrasonic_Maxbotix.cydsn/Ultrasonic_Maxbotix.c ****  * Copyright YOUR COMPANY, THE YEAR
   4:..\..\..\PSoC\Drivers\Ultrasonic_Maxbotix\Ultrasonic_Maxbotix\Ultrasonic_Maxbotix.cydsn/Ultrasonic_Maxbotix.c ****  * All Rights Reserved
   5:..\..\..\PSoC\Drivers\Ultrasonic_Maxbotix\Ultrasonic_Maxbotix\Ultrasonic_Maxbotix.cydsn/Ultrasonic_Maxbotix.c ****  * UNPUBLISHED, LICENSED SOFTWARE.
   6:..\..\..\PSoC\Drivers\Ultrasonic_Maxbotix\Ultrasonic_Maxbotix\Ultrasonic_Maxbotix.cydsn/Ultrasonic_Maxbotix.c ****  *
   7:..\..\..\PSoC\Drivers\Ultrasonic_Maxbotix\Ultrasonic_Maxbotix\Ultrasonic_Maxbotix.cydsn/Ultrasonic_Maxbotix.c ****  * CONFIDENTIAL AND PROPRIETARY INFORMATION
   8:..\..\..\PSoC\Drivers\Ultrasonic_Maxbotix\Ultrasonic_Maxbotix\Ultrasonic_Maxbotix.cydsn/Ultrasonic_Maxbotix.c ****  * WHICH IS THE PROPERTY OF your company.
   9:..\..\..\PSoC\Drivers\Ultrasonic_Maxbotix\Ultrasonic_Maxbotix\Ultrasonic_Maxbotix.cydsn/Ultrasonic_Maxbotix.c ****  *
  10:..\..\..\PSoC\Drivers\Ultrasonic_Maxbotix\Ultrasonic_Maxbotix\Ultrasonic_Maxbotix.cydsn/Ultrasonic_Maxbotix.c ****  * ========================================
  11:..\..\..\PSoC\Drivers\Ultrasonic_Maxbotix\Ultrasonic_Maxbotix\Ultrasonic_Maxbotix.cydsn/Ultrasonic_Maxbotix.c **** */
  12:..\..\..\PSoC\Drivers\Ultrasonic_Maxbotix\Ultrasonic_Maxbotix\Ultrasonic_Maxbotix.cydsn/Ultrasonic_Maxbotix.c **** #include <string.h>
  13:..\..\..\PSoC\Drivers\Ultrasonic_Maxbotix\Ultrasonic_Maxbotix\Ultrasonic_Maxbotix.cydsn/Ultrasonic_Maxbotix.c **** #include "Ultrasonic_Maxbotix.h"
  14:..\..\..\PSoC\Drivers\Ultrasonic_Maxbotix\Ultrasonic_Maxbotix\Ultrasonic_Maxbotix.cydsn/Ultrasonic_Maxbotix.c **** #define RAW_SERIAL_DATA_LENGTH_m 30
  15:..\..\..\PSoC\Drivers\Ultrasonic_Maxbotix\Ultrasonic_Maxbotix\Ultrasonic_Maxbotix.cydsn/Ultrasonic_Maxbotix.c **** #define VALUES_ARRAY_LENGTH 5
  16:..\..\..\PSoC\Drivers\Ultrasonic_Maxbotix\Ultrasonic_Maxbotix\Ultrasonic_Maxbotix.cydsn/Ultrasonic_Maxbotix.c **** uint8 raw_serial_data_m[RAW_SERIAL_DATA_LENGTH_m];
  17:..\..\..\PSoC\Drivers\Ultrasonic_Maxbotix\Ultrasonic_Maxbotix\Ultrasonic_Maxbotix.cydsn/Ultrasonic_Maxbotix.c **** uint8 raw_serial_data_count_m;
  18:..\..\..\PSoC\Drivers\Ultrasonic_Maxbotix\Ultrasonic_Maxbotix\Ultrasonic_Maxbotix.cydsn/Ultrasonic_Maxbotix.c **** 
  19:..\..\..\PSoC\Drivers\Ultrasonic_Maxbotix\Ultrasonic_Maxbotix\Ultrasonic_Maxbotix.cydsn/Ultrasonic_Maxbotix.c **** CY_ISR_PROTO(IntUartRx_M);
  20:..\..\..\PSoC\Drivers\Ultrasonic_Maxbotix\Ultrasonic_Maxbotix\Ultrasonic_Maxbotix.cydsn/Ultrasonic_Maxbotix.c **** 
  21:..\..\..\PSoC\Drivers\Ultrasonic_Maxbotix\Ultrasonic_Maxbotix\Ultrasonic_Maxbotix.cydsn/Ultrasonic_Maxbotix.c **** void Ultrasonic_Maxbotix_Start(){
  29              		.loc 1 21 0
  30              		.cfi_startproc
  31              		@ args = 0, pretend = 0, frame = 0
  32              		@ frame_needed = 1, uses_anonymous_args = 0
  33 0000 80B5     		push	{r7, lr}
  34              	.LCFI0:
  35              		.cfi_def_cfa_offset 8
  36              		.cfi_offset 7, -8
ARM GAS  C:\Users\hozhen\AppData\Local\Temp\cc192GiM.s 			page 2


  37              		.cfi_offset 14, -4
  38 0002 00AF     		add	r7, sp, #0
  39              	.LCFI1:
  40              		.cfi_def_cfa_register 7
  22:..\..\..\PSoC\Drivers\Ultrasonic_Maxbotix\Ultrasonic_Maxbotix\Ultrasonic_Maxbotix.cydsn/Ultrasonic_Maxbotix.c ****     
  23:..\..\..\PSoC\Drivers\Ultrasonic_Maxbotix\Ultrasonic_Maxbotix\Ultrasonic_Maxbotix.cydsn/Ultrasonic_Maxbotix.c ****     UART_Ultrasonic_Maxbotix_Start();
  41              		.loc 1 23 0
  42 0004 FFF7FEFF 		bl	UART_Ultrasonic_Maxbotix_Start
  24:..\..\..\PSoC\Drivers\Ultrasonic_Maxbotix\Ultrasonic_Maxbotix\Ultrasonic_Maxbotix.cydsn/Ultrasonic_Maxbotix.c **** 
  25:..\..\..\PSoC\Drivers\Ultrasonic_Maxbotix\Ultrasonic_Maxbotix\Ultrasonic_Maxbotix.cydsn/Ultrasonic_Maxbotix.c **** }
  43              		.loc 1 25 0
  44 0008 80BD     		pop	{r7, pc}
  45              		.cfi_endproc
  46              	.LFE56:
  47              		.size	Ultrasonic_Maxbotix_Start, .-Ultrasonic_Maxbotix_Start
  48 000a 00BF     		.section	.text.IntUartRx_M,"ax",%progbits
  49              		.align	2
  50              		.global	IntUartRx_M
  51              		.thumb
  52              		.thumb_func
  53              		.type	IntUartRx_M, %function
  54              	IntUartRx_M:
  55              	.LFB57:
  26:..\..\..\PSoC\Drivers\Ultrasonic_Maxbotix\Ultrasonic_Maxbotix\Ultrasonic_Maxbotix.cydsn/Ultrasonic_Maxbotix.c **** 
  27:..\..\..\PSoC\Drivers\Ultrasonic_Maxbotix\Ultrasonic_Maxbotix\Ultrasonic_Maxbotix.cydsn/Ultrasonic_Maxbotix.c **** CY_ISR(IntUartRx_M)
  28:..\..\..\PSoC\Drivers\Ultrasonic_Maxbotix\Ultrasonic_Maxbotix\Ultrasonic_Maxbotix.cydsn/Ultrasonic_Maxbotix.c **** {
  56              		.loc 1 28 0
  57              		.cfi_startproc
  58              		@ args = 0, pretend = 0, frame = 8
  59              		@ frame_needed = 1, uses_anonymous_args = 0
  60 0000 80B5     		push	{r7, lr}
  61              	.LCFI2:
  62              		.cfi_def_cfa_offset 8
  63              		.cfi_offset 7, -8
  64              		.cfi_offset 14, -4
  65 0002 82B0     		sub	sp, sp, #8
  66              	.LCFI3:
  67              		.cfi_def_cfa_offset 16
  68 0004 00AF     		add	r7, sp, #0
  69              	.LCFI4:
  70              		.cfi_def_cfa_register 7
  29:..\..\..\PSoC\Drivers\Ultrasonic_Maxbotix\Ultrasonic_Maxbotix\Ultrasonic_Maxbotix.cydsn/Ultrasonic_Maxbotix.c ****    uint8 getchar;
  30:..\..\..\PSoC\Drivers\Ultrasonic_Maxbotix\Ultrasonic_Maxbotix\Ultrasonic_Maxbotix.cydsn/Ultrasonic_Maxbotix.c ****    getchar  = UART_Ultrasonic_Maxbotix_GetChar();
  71              		.loc 1 30 0
  72 0006 FFF7FEFF 		bl	UART_Ultrasonic_Maxbotix_GetChar
  73 000a 0346     		mov	r3, r0
  74 000c FB71     		strb	r3, [r7, #7]
  31:..\..\..\PSoC\Drivers\Ultrasonic_Maxbotix\Ultrasonic_Maxbotix\Ultrasonic_Maxbotix.cydsn/Ultrasonic_Maxbotix.c ****         
  32:..\..\..\PSoC\Drivers\Ultrasonic_Maxbotix\Ultrasonic_Maxbotix\Ultrasonic_Maxbotix.cydsn/Ultrasonic_Maxbotix.c ****    if(getchar > 0u && raw_serial_data_count_m < RAW_SERIAL_DATA_LENGTH_m){
  75              		.loc 1 32 0
  76 000e FB79     		ldrb	r3, [r7, #7]	@ zero_extendqisi2
  77 0010 002B     		cmp	r3, #0
  78 0012 1FD0     		beq	.L2
  79              		.loc 1 32 0 is_stmt 0 discriminator 1
  80 0014 40F20003 		movw	r3, #:lower16:raw_serial_data_count_m
  81 0018 C0F20003 		movt	r3, #:upper16:raw_serial_data_count_m
  82 001c 1B78     		ldrb	r3, [r3, #0]	@ zero_extendqisi2
ARM GAS  C:\Users\hozhen\AppData\Local\Temp\cc192GiM.s 			page 3


  83 001e 1D2B     		cmp	r3, #29
  84 0020 18D8     		bhi	.L2
  33:..\..\..\PSoC\Drivers\Ultrasonic_Maxbotix\Ultrasonic_Maxbotix\Ultrasonic_Maxbotix.cydsn/Ultrasonic_Maxbotix.c ****         raw_serial_data_m[raw_serial_data_count_m] = getchar;
  85              		.loc 1 33 0 is_stmt 1
  86 0022 40F20003 		movw	r3, #:lower16:raw_serial_data_count_m
  87 0026 C0F20003 		movt	r3, #:upper16:raw_serial_data_count_m
  88 002a 1B78     		ldrb	r3, [r3, #0]	@ zero_extendqisi2
  89 002c 1A46     		mov	r2, r3
  90 002e 40F20003 		movw	r3, #:lower16:raw_serial_data_m
  91 0032 C0F20003 		movt	r3, #:upper16:raw_serial_data_m
  92 0036 F979     		ldrb	r1, [r7, #7]
  93 0038 9954     		strb	r1, [r3, r2]
  34:..\..\..\PSoC\Drivers\Ultrasonic_Maxbotix\Ultrasonic_Maxbotix\Ultrasonic_Maxbotix.cydsn/Ultrasonic_Maxbotix.c ****         raw_serial_data_count_m++;
  94              		.loc 1 34 0
  95 003a 40F20003 		movw	r3, #:lower16:raw_serial_data_count_m
  96 003e C0F20003 		movt	r3, #:upper16:raw_serial_data_count_m
  97 0042 1B78     		ldrb	r3, [r3, #0]	@ zero_extendqisi2
  98 0044 03F10103 		add	r3, r3, #1
  99 0048 DAB2     		uxtb	r2, r3
 100 004a 40F20003 		movw	r3, #:lower16:raw_serial_data_count_m
 101 004e C0F20003 		movt	r3, #:upper16:raw_serial_data_count_m
 102 0052 1A70     		strb	r2, [r3, #0]
 103              	.L2:
  35:..\..\..\PSoC\Drivers\Ultrasonic_Maxbotix\Ultrasonic_Maxbotix\Ultrasonic_Maxbotix.cydsn/Ultrasonic_Maxbotix.c ****         }   
  36:..\..\..\PSoC\Drivers\Ultrasonic_Maxbotix\Ultrasonic_Maxbotix\Ultrasonic_Maxbotix.cydsn/Ultrasonic_Maxbotix.c ****     
  37:..\..\..\PSoC\Drivers\Ultrasonic_Maxbotix\Ultrasonic_Maxbotix\Ultrasonic_Maxbotix.cydsn/Ultrasonic_Maxbotix.c **** }
 104              		.loc 1 37 0
 105 0054 07F10807 		add	r7, r7, #8
 106 0058 BD46     		mov	sp, r7
 107 005a 80BD     		pop	{r7, pc}
 108              		.cfi_endproc
 109              	.LFE57:
 110              		.size	IntUartRx_M, .-IntUartRx_M
 111              		.section	.rodata
 112              		.align	2
 113              	.LC0:
 114 0000 0D00     		.ascii	"\015\000"
 115 0002 0000     		.align	2
 116              	.LC1:
 117 0004 52256400 		.ascii	"R%d\000"
 118              		.section	.text.Ultrasonic_Maxbotix_Convert_Raw_Reading,"ax",%progbits
 119              		.align	2
 120              		.global	Ultrasonic_Maxbotix_Convert_Raw_Reading
 121              		.thumb
 122              		.thumb_func
 123              		.type	Ultrasonic_Maxbotix_Convert_Raw_Reading, %function
 124              	Ultrasonic_Maxbotix_Convert_Raw_Reading:
 125              	.LFB58:
  38:..\..\..\PSoC\Drivers\Ultrasonic_Maxbotix\Ultrasonic_Maxbotix\Ultrasonic_Maxbotix.cydsn/Ultrasonic_Maxbotix.c **** 
  39:..\..\..\PSoC\Drivers\Ultrasonic_Maxbotix\Ultrasonic_Maxbotix\Ultrasonic_Maxbotix.cydsn/Ultrasonic_Maxbotix.c **** MaxbotixUltrasonic Ultrasonic_Maxbotix_Convert_Raw_Reading(uint8* raw_M){
 126              		.loc 1 39 0
 127              		.cfi_startproc
 128              		@ args = 0, pretend = 0, frame = 56
 129              		@ frame_needed = 1, uses_anonymous_args = 0
 130 0000 80B5     		push	{r7, lr}
 131              	.LCFI5:
 132              		.cfi_def_cfa_offset 8
ARM GAS  C:\Users\hozhen\AppData\Local\Temp\cc192GiM.s 			page 4


 133              		.cfi_offset 7, -8
 134              		.cfi_offset 14, -4
 135 0002 8EB0     		sub	sp, sp, #56
 136              	.LCFI6:
 137              		.cfi_def_cfa_offset 64
 138 0004 00AF     		add	r7, sp, #0
 139              	.LCFI7:
 140              		.cfi_def_cfa_register 7
 141 0006 7860     		str	r0, [r7, #4]
 142 0008 3960     		str	r1, [r7, #0]
  40:..\..\..\PSoC\Drivers\Ultrasonic_Maxbotix\Ultrasonic_Maxbotix\Ultrasonic_Maxbotix.cydsn/Ultrasonic_Maxbotix.c ****     uint32 values[VALUES_ARRAY_LENGTH];
  41:..\..\..\PSoC\Drivers\Ultrasonic_Maxbotix\Ultrasonic_Maxbotix\Ultrasonic_Maxbotix.cydsn/Ultrasonic_Maxbotix.c ****     char* token;
  42:..\..\..\PSoC\Drivers\Ultrasonic_Maxbotix\Ultrasonic_Maxbotix\Ultrasonic_Maxbotix.cydsn/Ultrasonic_Maxbotix.c ****     uint8 value_count = 0u;
 143              		.loc 1 42 0
 144 000a 4FF00003 		mov	r3, #0
 145 000e 87F83330 		strb	r3, [r7, #51]
  43:..\..\..\PSoC\Drivers\Ultrasonic_Maxbotix\Ultrasonic_Maxbotix\Ultrasonic_Maxbotix.cydsn/Ultrasonic_Maxbotix.c ****     token = strtok(raw_M,"\r");
 146              		.loc 1 43 0
 147 0012 3868     		ldr	r0, [r7, #0]
 148 0014 40F20001 		movw	r1, #:lower16:.LC0
 149 0018 C0F20001 		movt	r1, #:upper16:.LC0
 150 001c FFF7FEFF 		bl	strtok
 151 0020 7863     		str	r0, [r7, #52]
  44:..\..\..\PSoC\Drivers\Ultrasonic_Maxbotix\Ultrasonic_Maxbotix\Ultrasonic_Maxbotix.cydsn/Ultrasonic_Maxbotix.c ****     while(token != NULL){
 152              		.loc 1 44 0
 153 0022 2BE0     		b	.L5
 154              	.L9:
 155              	.LBB2:
  45:..\..\..\PSoC\Drivers\Ultrasonic_Maxbotix\Ultrasonic_Maxbotix\Ultrasonic_Maxbotix.cydsn/Ultrasonic_Maxbotix.c ****         uint32 value;
  46:..\..\..\PSoC\Drivers\Ultrasonic_Maxbotix\Ultrasonic_Maxbotix\Ultrasonic_Maxbotix.cydsn/Ultrasonic_Maxbotix.c ****         uint32 scan_valid;
  47:..\..\..\PSoC\Drivers\Ultrasonic_Maxbotix\Ultrasonic_Maxbotix\Ultrasonic_Maxbotix.cydsn/Ultrasonic_Maxbotix.c ****         scan_valid = sscanf(token,"R%d",&value);
 156              		.loc 1 47 0
 157 0024 07F10803 		add	r3, r7, #8
 158 0028 786B     		ldr	r0, [r7, #52]
 159 002a 40F20001 		movw	r1, #:lower16:.LC1
 160 002e C0F20001 		movt	r1, #:upper16:.LC1
 161 0032 1A46     		mov	r2, r3
 162 0034 FFF7FEFF 		bl	sscanf
 163 0038 0346     		mov	r3, r0
 164 003a BB62     		str	r3, [r7, #40]
  48:..\..\..\PSoC\Drivers\Ultrasonic_Maxbotix\Ultrasonic_Maxbotix\Ultrasonic_Maxbotix.cydsn/Ultrasonic_Maxbotix.c ****         if (scan_valid != 0){
 165              		.loc 1 48 0
 166 003c BB6A     		ldr	r3, [r7, #40]
 167 003e 002B     		cmp	r3, #0
 168 0040 13D0     		beq	.L6
  49:..\..\..\PSoC\Drivers\Ultrasonic_Maxbotix\Ultrasonic_Maxbotix\Ultrasonic_Maxbotix.cydsn/Ultrasonic_Maxbotix.c ****             values[value_count] = value;
 169              		.loc 1 49 0
 170 0042 97F83330 		ldrb	r3, [r7, #51]	@ zero_extendqisi2
 171 0046 BA68     		ldr	r2, [r7, #8]
 172 0048 4FEA8303 		lsl	r3, r3, #2
 173 004c 07F13801 		add	r1, r7, #56
 174 0050 CB18     		adds	r3, r1, r3
 175 0052 43F8242C 		str	r2, [r3, #-36]
  50:..\..\..\PSoC\Drivers\Ultrasonic_Maxbotix\Ultrasonic_Maxbotix\Ultrasonic_Maxbotix.cydsn/Ultrasonic_Maxbotix.c ****             value_count++;
 176              		.loc 1 50 0
 177 0056 97F83330 		ldrb	r3, [r7, #51]
 178 005a 03F10103 		add	r3, r3, #1
ARM GAS  C:\Users\hozhen\AppData\Local\Temp\cc192GiM.s 			page 5


 179 005e 87F83330 		strb	r3, [r7, #51]
  51:..\..\..\PSoC\Drivers\Ultrasonic_Maxbotix\Ultrasonic_Maxbotix\Ultrasonic_Maxbotix.cydsn/Ultrasonic_Maxbotix.c ****             if (value_count == VALUES_ARRAY_LENGTH){
 180              		.loc 1 51 0
 181 0062 97F83330 		ldrb	r3, [r7, #51]	@ zero_extendqisi2
 182 0066 052B     		cmp	r3, #5
 183 0068 0BD0     		beq	.L8
 184              	.L6:
  52:..\..\..\PSoC\Drivers\Ultrasonic_Maxbotix\Ultrasonic_Maxbotix\Ultrasonic_Maxbotix.cydsn/Ultrasonic_Maxbotix.c ****                 break;
  53:..\..\..\PSoC\Drivers\Ultrasonic_Maxbotix\Ultrasonic_Maxbotix\Ultrasonic_Maxbotix.cydsn/Ultrasonic_Maxbotix.c ****             }
  54:..\..\..\PSoC\Drivers\Ultrasonic_Maxbotix\Ultrasonic_Maxbotix\Ultrasonic_Maxbotix.cydsn/Ultrasonic_Maxbotix.c ****         
  55:..\..\..\PSoC\Drivers\Ultrasonic_Maxbotix\Ultrasonic_Maxbotix\Ultrasonic_Maxbotix.cydsn/Ultrasonic_Maxbotix.c ****         }
  56:..\..\..\PSoC\Drivers\Ultrasonic_Maxbotix\Ultrasonic_Maxbotix\Ultrasonic_Maxbotix.cydsn/Ultrasonic_Maxbotix.c ****         token = strtok(NULL,"\r");
 185              		.loc 1 56 0
 186 006a 4FF00000 		mov	r0, #0
 187 006e 40F20001 		movw	r1, #:lower16:.LC0
 188 0072 C0F20001 		movt	r1, #:upper16:.LC0
 189 0076 FFF7FEFF 		bl	strtok
 190 007a 7863     		str	r0, [r7, #52]
 191              	.L5:
 192              	.LBE2:
  44:..\..\..\PSoC\Drivers\Ultrasonic_Maxbotix\Ultrasonic_Maxbotix\Ultrasonic_Maxbotix.cydsn/Ultrasonic_Maxbotix.c ****     while(token != NULL){
 193              		.loc 1 44 0 discriminator 1
 194 007c 7B6B     		ldr	r3, [r7, #52]
 195 007e 002B     		cmp	r3, #0
 196 0080 D0D1     		bne	.L9
 197              	.L8:
  57:..\..\..\PSoC\Drivers\Ultrasonic_Maxbotix\Ultrasonic_Maxbotix\Ultrasonic_Maxbotix.cydsn/Ultrasonic_Maxbotix.c ****         
  58:..\..\..\PSoC\Drivers\Ultrasonic_Maxbotix\Ultrasonic_Maxbotix\Ultrasonic_Maxbotix.cydsn/Ultrasonic_Maxbotix.c ****     }
  59:..\..\..\PSoC\Drivers\Ultrasonic_Maxbotix\Ultrasonic_Maxbotix\Ultrasonic_Maxbotix.cydsn/Ultrasonic_Maxbotix.c ****     //uint32 final_value = 0u;
  60:..\..\..\PSoC\Drivers\Ultrasonic_Maxbotix\Ultrasonic_Maxbotix\Ultrasonic_Maxbotix.cydsn/Ultrasonic_Maxbotix.c ****     
  61:..\..\..\PSoC\Drivers\Ultrasonic_Maxbotix\Ultrasonic_Maxbotix\Ultrasonic_Maxbotix.cydsn/Ultrasonic_Maxbotix.c ****     MaxbotixUltrasonic final_value;
  62:..\..\..\PSoC\Drivers\Ultrasonic_Maxbotix\Ultrasonic_Maxbotix\Ultrasonic_Maxbotix.cydsn/Ultrasonic_Maxbotix.c ****     final_value.valid = 0u;    
 198              		.loc 1 62 0
 199 0082 4FF00003 		mov	r3, #0
 200 0086 3B74     		strb	r3, [r7, #16]
  63:..\..\..\PSoC\Drivers\Ultrasonic_Maxbotix\Ultrasonic_Maxbotix\Ultrasonic_Maxbotix.cydsn/Ultrasonic_Maxbotix.c ****     
  64:..\..\..\PSoC\Drivers\Ultrasonic_Maxbotix\Ultrasonic_Maxbotix\Ultrasonic_Maxbotix.cydsn/Ultrasonic_Maxbotix.c ****     
  65:..\..\..\PSoC\Drivers\Ultrasonic_Maxbotix\Ultrasonic_Maxbotix\Ultrasonic_Maxbotix.cydsn/Ultrasonic_Maxbotix.c ****     int i = 0;
 201              		.loc 1 65 0
 202 0088 4FF00003 		mov	r3, #0
 203 008c FB62     		str	r3, [r7, #44]
  66:..\..\..\PSoC\Drivers\Ultrasonic_Maxbotix\Ultrasonic_Maxbotix\Ultrasonic_Maxbotix.cydsn/Ultrasonic_Maxbotix.c ****     for(i = 0; i < VALUES_ARRAY_LENGTH+1; i++){
 204              		.loc 1 66 0
 205 008e 4FF00003 		mov	r3, #0
 206 0092 FB62     		str	r3, [r7, #44]
 207 0094 0EE0     		b	.L10
 208              	.L11:
  67:..\..\..\PSoC\Drivers\Ultrasonic_Maxbotix\Ultrasonic_Maxbotix\Ultrasonic_Maxbotix.cydsn/Ultrasonic_Maxbotix.c ****         final_value.depth = final_value.depth + values[i];
 209              		.loc 1 67 0 discriminator 2
 210 0096 FA68     		ldr	r2, [r7, #12]
 211 0098 FB6A     		ldr	r3, [r7, #44]
 212 009a 4FEA8303 		lsl	r3, r3, #2
 213 009e 07F13801 		add	r1, r7, #56
 214 00a2 CB18     		adds	r3, r1, r3
 215 00a4 53F8243C 		ldr	r3, [r3, #-36]
 216 00a8 D318     		adds	r3, r2, r3
 217 00aa FB60     		str	r3, [r7, #12]
ARM GAS  C:\Users\hozhen\AppData\Local\Temp\cc192GiM.s 			page 6


  66:..\..\..\PSoC\Drivers\Ultrasonic_Maxbotix\Ultrasonic_Maxbotix\Ultrasonic_Maxbotix.cydsn/Ultrasonic_Maxbotix.c ****     for(i = 0; i < VALUES_ARRAY_LENGTH+1; i++){
 218              		.loc 1 66 0 discriminator 2
 219 00ac FB6A     		ldr	r3, [r7, #44]
 220 00ae 03F10103 		add	r3, r3, #1
 221 00b2 FB62     		str	r3, [r7, #44]
 222              	.L10:
  66:..\..\..\PSoC\Drivers\Ultrasonic_Maxbotix\Ultrasonic_Maxbotix\Ultrasonic_Maxbotix.cydsn/Ultrasonic_Maxbotix.c ****     for(i = 0; i < VALUES_ARRAY_LENGTH+1; i++){
 223              		.loc 1 66 0 is_stmt 0 discriminator 1
 224 00b4 FB6A     		ldr	r3, [r7, #44]
 225 00b6 052B     		cmp	r3, #5
 226 00b8 EDDD     		ble	.L11
  68:..\..\..\PSoC\Drivers\Ultrasonic_Maxbotix\Ultrasonic_Maxbotix\Ultrasonic_Maxbotix.cydsn/Ultrasonic_Maxbotix.c ****     }
  69:..\..\..\PSoC\Drivers\Ultrasonic_Maxbotix\Ultrasonic_Maxbotix\Ultrasonic_Maxbotix.cydsn/Ultrasonic_Maxbotix.c ****     final_value.depth = final_value.depth/VALUES_ARRAY_LENGTH;
 227              		.loc 1 69 0 is_stmt 1
 228 00ba FA68     		ldr	r2, [r7, #12]
 229 00bc 4CF6CD43 		movw	r3, #52429
 230 00c0 CCF6CC43 		movt	r3, 52428
 231 00c4 A3FB0213 		umull	r1, r3, r3, r2
 232 00c8 4FEA9303 		lsr	r3, r3, #2
 233 00cc FB60     		str	r3, [r7, #12]
  70:..\..\..\PSoC\Drivers\Ultrasonic_Maxbotix\Ultrasonic_Maxbotix\Ultrasonic_Maxbotix.cydsn/Ultrasonic_Maxbotix.c **** 
  71:..\..\..\PSoC\Drivers\Ultrasonic_Maxbotix\Ultrasonic_Maxbotix\Ultrasonic_Maxbotix.cydsn/Ultrasonic_Maxbotix.c ****     return final_value;
 234              		.loc 1 71 0
 235 00ce 7B68     		ldr	r3, [r7, #4]
 236 00d0 07F10C02 		add	r2, r7, #12
 237 00d4 92E80300 		ldmia	r2, {r0, r1}
 238 00d8 83E80300 		stmia	r3, {r0, r1}
  72:..\..\..\PSoC\Drivers\Ultrasonic_Maxbotix\Ultrasonic_Maxbotix\Ultrasonic_Maxbotix.cydsn/Ultrasonic_Maxbotix.c ****     
  73:..\..\..\PSoC\Drivers\Ultrasonic_Maxbotix\Ultrasonic_Maxbotix\Ultrasonic_Maxbotix.cydsn/Ultrasonic_Maxbotix.c **** 
  74:..\..\..\PSoC\Drivers\Ultrasonic_Maxbotix\Ultrasonic_Maxbotix\Ultrasonic_Maxbotix.cydsn/Ultrasonic_Maxbotix.c ****     
  75:..\..\..\PSoC\Drivers\Ultrasonic_Maxbotix\Ultrasonic_Maxbotix\Ultrasonic_Maxbotix.cydsn/Ultrasonic_Maxbotix.c **** }
 239              		.loc 1 75 0
 240 00dc 7868     		ldr	r0, [r7, #4]
 241 00de 07F13807 		add	r7, r7, #56
 242 00e2 BD46     		mov	sp, r7
 243 00e4 80BD     		pop	{r7, pc}
 244              		.cfi_endproc
 245              	.LFE58:
 246              		.size	Ultrasonic_Maxbotix_Convert_Raw_Reading, .-Ultrasonic_Maxbotix_Convert_Raw_Reading
 247 00e6 00BF     		.section	.text.Ultrasonic_Maxbotix_Take_Reading,"ax",%progbits
 248              		.align	2
 249              		.global	Ultrasonic_Maxbotix_Take_Reading
 250              		.thumb
 251              		.thumb_func
 252              		.type	Ultrasonic_Maxbotix_Take_Reading, %function
 253              	Ultrasonic_Maxbotix_Take_Reading:
 254              	.LFB59:
  76:..\..\..\PSoC\Drivers\Ultrasonic_Maxbotix\Ultrasonic_Maxbotix\Ultrasonic_Maxbotix.cydsn/Ultrasonic_Maxbotix.c **** 
  77:..\..\..\PSoC\Drivers\Ultrasonic_Maxbotix\Ultrasonic_Maxbotix\Ultrasonic_Maxbotix.cydsn/Ultrasonic_Maxbotix.c **** MaxbotixUltrasonic Ultrasonic_Maxbotix_Take_Reading(){
 255              		.loc 1 77 0
 256              		.cfi_startproc
 257              		@ args = 0, pretend = 0, frame = 16
 258              		@ frame_needed = 1, uses_anonymous_args = 0
 259 0000 80B5     		push	{r7, lr}
 260              	.LCFI8:
 261              		.cfi_def_cfa_offset 8
 262              		.cfi_offset 7, -8
ARM GAS  C:\Users\hozhen\AppData\Local\Temp\cc192GiM.s 			page 7


 263              		.cfi_offset 14, -4
 264 0002 84B0     		sub	sp, sp, #16
 265              	.LCFI9:
 266              		.cfi_def_cfa_offset 24
 267 0004 00AF     		add	r7, sp, #0
 268              	.LCFI10:
 269              		.cfi_def_cfa_register 7
 270 0006 7860     		str	r0, [r7, #4]
  78:..\..\..\PSoC\Drivers\Ultrasonic_Maxbotix\Ultrasonic_Maxbotix\Ultrasonic_Maxbotix.cydsn/Ultrasonic_Maxbotix.c **** 
  79:..\..\..\PSoC\Drivers\Ultrasonic_Maxbotix\Ultrasonic_Maxbotix\Ultrasonic_Maxbotix.cydsn/Ultrasonic_Maxbotix.c **** //    uint8 getchar;
  80:..\..\..\PSoC\Drivers\Ultrasonic_Maxbotix\Ultrasonic_Maxbotix\Ultrasonic_Maxbotix.cydsn/Ultrasonic_Maxbotix.c ****     //uint8 arraycount = 0u;
  81:..\..\..\PSoC\Drivers\Ultrasonic_Maxbotix\Ultrasonic_Maxbotix\Ultrasonic_Maxbotix.cydsn/Ultrasonic_Maxbotix.c ****     raw_serial_data_count_m = 0u;
 271              		.loc 1 81 0
 272 0008 40F20003 		movw	r3, #:lower16:raw_serial_data_count_m
 273 000c C0F20003 		movt	r3, #:upper16:raw_serial_data_count_m
 274 0010 4FF00002 		mov	r2, #0
 275 0014 1A70     		strb	r2, [r3, #0]
  82:..\..\..\PSoC\Drivers\Ultrasonic_Maxbotix\Ultrasonic_Maxbotix\Ultrasonic_Maxbotix.cydsn/Ultrasonic_Maxbotix.c ****     isr_Ultrasonic_Maxbotix_StartEx(IntUartRx_M);
 276              		.loc 1 82 0
 277 0016 40F20000 		movw	r0, #:lower16:IntUartRx_M
 278 001a C0F20000 		movt	r0, #:upper16:IntUartRx_M
 279 001e FFF7FEFF 		bl	isr_Ultrasonic_Maxbotix_StartEx
  83:..\..\..\PSoC\Drivers\Ultrasonic_Maxbotix\Ultrasonic_Maxbotix\Ultrasonic_Maxbotix.cydsn/Ultrasonic_Maxbotix.c ****     CyDelay(1000u);
 280              		.loc 1 83 0
 281 0022 4FF47A70 		mov	r0, #1000
 282 0026 FFF7FEFF 		bl	CyDelay
  84:..\..\..\PSoC\Drivers\Ultrasonic_Maxbotix\Ultrasonic_Maxbotix\Ultrasonic_Maxbotix.cydsn/Ultrasonic_Maxbotix.c ****     isr_Ultrasonic_Maxbotix_Stop();
 283              		.loc 1 84 0
 284 002a FFF7FEFF 		bl	isr_Ultrasonic_Maxbotix_Stop
  85:..\..\..\PSoC\Drivers\Ultrasonic_Maxbotix\Ultrasonic_Maxbotix\Ultrasonic_Maxbotix.cydsn/Ultrasonic_Maxbotix.c **** /*    while(1){
  86:..\..\..\PSoC\Drivers\Ultrasonic_Maxbotix\Ultrasonic_Maxbotix\Ultrasonic_Maxbotix.cydsn/Ultrasonic_Maxbotix.c ****         getchar  = UART_Maxbotix_GetChar();
  87:..\..\..\PSoC\Drivers\Ultrasonic_Maxbotix\Ultrasonic_Maxbotix\Ultrasonic_Maxbotix.cydsn/Ultrasonic_Maxbotix.c ****         
  88:..\..\..\PSoC\Drivers\Ultrasonic_Maxbotix\Ultrasonic_Maxbotix\Ultrasonic_Maxbotix.cydsn/Ultrasonic_Maxbotix.c ****         if(getchar > 0u){
  89:..\..\..\PSoC\Drivers\Ultrasonic_Maxbotix\Ultrasonic_Maxbotix\Ultrasonic_Maxbotix.cydsn/Ultrasonic_Maxbotix.c ****             raw_serial_data_m[arraycount] = getchar;
  90:..\..\..\PSoC\Drivers\Ultrasonic_Maxbotix\Ultrasonic_Maxbotix\Ultrasonic_Maxbotix.cydsn/Ultrasonic_Maxbotix.c ****             arraycount++;
  91:..\..\..\PSoC\Drivers\Ultrasonic_Maxbotix\Ultrasonic_Maxbotix\Ultrasonic_Maxbotix.cydsn/Ultrasonic_Maxbotix.c ****             if (arraycount == RAW_SERIAL_DATA_LENGTH_m){
  92:..\..\..\PSoC\Drivers\Ultrasonic_Maxbotix\Ultrasonic_Maxbotix\Ultrasonic_Maxbotix.cydsn/Ultrasonic_Maxbotix.c ****                 break;
  93:..\..\..\PSoC\Drivers\Ultrasonic_Maxbotix\Ultrasonic_Maxbotix\Ultrasonic_Maxbotix.cydsn/Ultrasonic_Maxbotix.c ****             }
  94:..\..\..\PSoC\Drivers\Ultrasonic_Maxbotix\Ultrasonic_Maxbotix\Ultrasonic_Maxbotix.cydsn/Ultrasonic_Maxbotix.c ****         }   
  95:..\..\..\PSoC\Drivers\Ultrasonic_Maxbotix\Ultrasonic_Maxbotix\Ultrasonic_Maxbotix.cydsn/Ultrasonic_Maxbotix.c ****     }*/
  96:..\..\..\PSoC\Drivers\Ultrasonic_Maxbotix\Ultrasonic_Maxbotix\Ultrasonic_Maxbotix.cydsn/Ultrasonic_Maxbotix.c ****     MaxbotixUltrasonic depth;
  97:..\..\..\PSoC\Drivers\Ultrasonic_Maxbotix\Ultrasonic_Maxbotix\Ultrasonic_Maxbotix.cydsn/Ultrasonic_Maxbotix.c ****     depth = Ultrasonic_Maxbotix_Convert_Raw_Reading(raw_serial_data_m);
 285              		.loc 1 97 0
 286 002e 07F10803 		add	r3, r7, #8
 287 0032 1846     		mov	r0, r3
 288 0034 40F20001 		movw	r1, #:lower16:raw_serial_data_m
 289 0038 C0F20001 		movt	r1, #:upper16:raw_serial_data_m
 290 003c FFF7FEFF 		bl	Ultrasonic_Maxbotix_Convert_Raw_Reading
  98:..\..\..\PSoC\Drivers\Ultrasonic_Maxbotix\Ultrasonic_Maxbotix\Ultrasonic_Maxbotix.cydsn/Ultrasonic_Maxbotix.c ****     return depth;
 291              		.loc 1 98 0
 292 0040 7B68     		ldr	r3, [r7, #4]
 293 0042 07F10802 		add	r2, r7, #8
 294 0046 92E80300 		ldmia	r2, {r0, r1}
 295 004a 83E80300 		stmia	r3, {r0, r1}
  99:..\..\..\PSoC\Drivers\Ultrasonic_Maxbotix\Ultrasonic_Maxbotix\Ultrasonic_Maxbotix.cydsn/Ultrasonic_Maxbotix.c **** }
 296              		.loc 1 99 0
 297 004e 7868     		ldr	r0, [r7, #4]
ARM GAS  C:\Users\hozhen\AppData\Local\Temp\cc192GiM.s 			page 8


 298 0050 07F11007 		add	r7, r7, #16
 299 0054 BD46     		mov	sp, r7
 300 0056 80BD     		pop	{r7, pc}
 301              		.cfi_endproc
 302              	.LFE59:
 303              		.size	Ultrasonic_Maxbotix_Take_Reading, .-Ultrasonic_Maxbotix_Take_Reading
 304              		.text
 305              	.Letext0:
 306              		.file 2 "c:\\program files (x86)\\cypress\\psoc creator\\3.0\\psoc creator\\import\\gnu_cs\\arm\\4
 307              		.file 3 "./Generated_Source/PSoC5/cytypes.h"
 308              		.file 4 "..\\..\\..\\PSoC\\Drivers\\Ultrasonic_Maxbotix\\Ultrasonic_Maxbotix\\Ultrasonic_Maxbotix.
 309              		.file 5 "./Generated_Source/PSoC5/core_cm3.h"
 310              		.file 6 "<built-in>"